
firmware.elf:     file format elf32-littleriscv


Disassembly of section .text:

02000000 <_start>:
.section .text.reset, "ax"
.global _start
.global irq_handler

_start:
    j   _reset
 2000000:	a811                	j	2000014 <_reset>
	...

02000010 <_irq_vec>:

.org 0x10
_irq_vec:
    j   irq_handler
 2000010:	0ba0006f          	j	20000ca <irq_handler>

02000014 <_reset>:

_reset:
    la      sp, _stack_top
 2000014:	ff004117          	auipc	sp,0xff004
 2000018:	fec10113          	addi	sp,sp,-20 # 1004000 <_stack_top>

    la      t0, _bss_start
 200001c:	ff000297          	auipc	t0,0xff000
 2000020:	54828293          	addi	t0,t0,1352 # 1000564 <__sf>
    la      t1, _bss_end
 2000024:	ff000317          	auipc	t1,0xff000
 2000028:	6a030313          	addi	t1,t1,1696 # 10006c4 <__stdio_exit_handler>

0200002c <.zero_bss>:
.zero_bss:
    bge     t0, t1, .bss_done
 200002c:	0062d663          	bge	t0,t1,2000038 <.bss_done>
    sw      zero, 0(t0)
 2000030:	0002a023          	sw	zero,0(t0)
    addi    t0, t0, 4
 2000034:	0291                	addi	t0,t0,4
    j       .zero_bss
 2000036:	bfdd                	j	200002c <.zero_bss>

02000038 <.bss_done>:
.bss_done:

    la      t0, _data_lma
 2000038:	00002297          	auipc	t0,0x2
 200003c:	b9228293          	addi	t0,t0,-1134 # 2001bca <_data_lma>
    la      t1, _data_start
 2000040:	ff000317          	auipc	t1,0xff000
 2000044:	fc030313          	addi	t1,t1,-64 # 1000000 <_impure_data>
    la      t2, _data_end
 2000048:	ff000397          	auipc	t2,0xff000
 200004c:	50c38393          	addi	t2,t2,1292 # 1000554 <heap_ptr.0>

02000050 <.copy_data>:
.copy_data:
    bge     t1, t2, .data_done
 2000050:	00735963          	bge	t1,t2,2000062 <.data_done>
    lw      t3, 0(t0)
 2000054:	0002ae03          	lw	t3,0(t0)
    sw      t3, 0(t1)
 2000058:	01c32023          	sw	t3,0(t1)
    addi    t0, t0, 4
 200005c:	0291                	addi	t0,t0,4
    addi    t1, t1, 4
 200005e:	0311                	addi	t1,t1,4
    j       .copy_data
 2000060:	bfc5                	j	2000050 <.copy_data>

02000062 <.data_done>:
.data_done:

    call    main
 2000062:	20b5                	jal	20000ce <main>

02000064 <.hang>:

.hang:
    j       .hang
 2000064:	a001                	j	2000064 <.hang>

02000066 <_sbrk>:
#include <stdint.h>

/* _end è definito nel linker script dopo il BSS */
extern char _end;

void *_sbrk(ptrdiff_t incr) {
 2000066:	87aa                	mv	a5,a0
    static char *heap_ptr = &_end;
    char        *prev     = heap_ptr;
 2000068:	01000737          	lui	a4,0x1000
 200006c:	55472503          	lw	a0,1364(a4) # 1000554 <heap_ptr.0>

    /* Limite superiore: top dello stack (fine DTCM a 0x01010000 per 64K) */
    extern char _stack_top;
    if (heap_ptr + incr > &_stack_top - 512) {
 2000070:	97aa                	add	a5,a5,a0
 2000072:	01004737          	lui	a4,0x1004
 2000076:	e0070713          	addi	a4,a4,-512 # 1003e00 <__malloc_top_pad+0x372c>
 200007a:	00f76763          	bltu	a4,a5,2000088 <_sbrk+0x22>
        errno = ENOMEM;
        return (void *)-1;
    }

    heap_ptr += incr;
 200007e:	01000737          	lui	a4,0x1000
 2000082:	54f72a23          	sw	a5,1364(a4) # 1000554 <heap_ptr.0>
    return (void *)prev;
}
 2000086:	8082                	ret
void *_sbrk(ptrdiff_t incr) {
 2000088:	1141                	addi	sp,sp,-16
 200008a:	c606                	sw	ra,12(sp)
        errno = ENOMEM;
 200008c:	20d1                	jal	2000150 <__errno>
 200008e:	47b1                	li	a5,12
 2000090:	c11c                	sw	a5,0(a0)
        return (void *)-1;
 2000092:	557d                	li	a0,-1
}
 2000094:	40b2                	lw	ra,12(sp)
 2000096:	0141                	addi	sp,sp,16
 2000098:	8082                	ret

0200009a <delay_ms>:
#define CLK_HZ  27000000UL
#define BAUD    115200UL

static void delay_ms(uint32_t ms) {
    volatile uint32_t i;
    while (ms--) for (i = 0; i < 9000u; i++) {}
 200009a:	c51d                	beqz	a0,20000c8 <delay_ms+0x2e>
static void delay_ms(uint32_t ms) {
 200009c:	1141                	addi	sp,sp,-16
    while (ms--) for (i = 0; i < 9000u; i++) {}
 200009e:	fff50693          	addi	a3,a0,-1
 20000a2:	6709                	lui	a4,0x2
 20000a4:	32770713          	addi	a4,a4,807 # 2327 <_impure_data-0xffdcd9>
 20000a8:	567d                	li	a2,-1
 20000aa:	c602                	sw	zero,12(sp)
 20000ac:	47b2                	lw	a5,12(sp)
 20000ae:	00f76863          	bltu	a4,a5,20000be <delay_ms+0x24>
 20000b2:	47b2                	lw	a5,12(sp)
 20000b4:	0785                	addi	a5,a5,1
 20000b6:	c63e                	sw	a5,12(sp)
 20000b8:	47b2                	lw	a5,12(sp)
 20000ba:	fef77ce3          	bgeu	a4,a5,20000b2 <delay_ms+0x18>
 20000be:	16fd                	addi	a3,a3,-1
 20000c0:	fec695e3          	bne	a3,a2,20000aa <delay_ms+0x10>
}
 20000c4:	0141                	addi	sp,sp,16
 20000c6:	8082                	ret
 20000c8:	8082                	ret

020000ca <irq_handler>:

void __attribute__((interrupt("machine"))) irq_handler(void) {}
 20000ca:	30200073          	mret

020000ce <main>:

int main(void) {
 20000ce:	1101                	addi	sp,sp,-32
 20000d0:	ce06                	sw	ra,28(sp)
 20000d2:	cc22                	sw	s0,24(sp)
 20000d4:	ca26                	sw	s1,20(sp)
 20000d6:	c84a                	sw	s2,16(sp)
 20000d8:	c64e                	sw	s3,12(sp)
 20000da:	c452                	sw	s4,8(sp)
#define UARTEXT_CFG_PARITY_ODD   0x02u
#define UARTEXT_CFG_STOP2        0x04u
#define UARTEXT_CFG_BITS(n)      (((uint32_t)((n)-5) & 0xFu) << 3)

static inline void uartext_init(uint32_t clk_hz, uint32_t baud, uint32_t cfg) {
    UARTEXT_STOP  = 1;
 20000dc:	20000737          	lui	a4,0x20000
 20000e0:	4785                	li	a5,1
 20000e2:	c71c                	sw	a5,8(a4)
    UARTEXT_DIV   = clk_hz / baud;
 20000e4:	0ea00693          	li	a3,234
 20000e8:	c754                	sw	a3,12(a4)
    UARTEXT_CFG   = cfg;
 20000ea:	46e1                	li	a3,24
 20000ec:	cb14                	sw	a3,16(a4)
    UARTEXT_START = 1;
 20000ee:	c35c                	sw	a5,4(a4)
static inline int uartext_getchar_nb(void) {
    uint32_t d = UARTEXT_DATA;
    return (d & (1u << 8)) ? (int)(d & 0xFF) : -1;
}
static inline void uartext_puts(const char *s) {
    while (*s) uartext_putchar(*s++);
 20000f0:	4635                	li	a2,13
    UARTEXT_START = 1;
 20000f2:	020026b7          	lui	a3,0x2002
 20000f6:	bbc68693          	addi	a3,a3,-1092 # 2001bbc <_write+0x14>
    while (UARTEXT_STATUS & 0x1u) {}
 20000fa:	0751                	addi	a4,a4,20 # 20000014 <_data_lma+0x1dffe44a>
    UARTEXT_DATA = (uint8_t)c;
 20000fc:	20000537          	lui	a0,0x20000
    while (*s) uartext_putchar(*s++);
 2000100:	020025b7          	lui	a1,0x2002
 2000104:	bc958593          	addi	a1,a1,-1079 # 2001bc9 <_write+0x21>
 2000108:	0685                	addi	a3,a3,1
    while (UARTEXT_STATUS & 0x1u) {}
 200010a:	431c                	lw	a5,0(a4)
 200010c:	8b85                	andi	a5,a5,1
 200010e:	fff5                	bnez	a5,200010a <main+0x3c>
    UARTEXT_DATA = (uint8_t)c;
 2000110:	c110                	sw	a2,0(a0)
    while (*s) uartext_putchar(*s++);
 2000112:	0006c603          	lbu	a2,0(a3)
 2000116:	feb699e3          	bne	a3,a1,2000108 <main+0x3a>
// WR: dat[0] = gpio_1_o
// RD: dat[0] = gpio_in (attualmente fissato a 0 nel top)
#define GPIO_BASE       0x70000000u
#define GPIO_REG        (*(volatile uint32_t*)(GPIO_BASE))

static inline void gpio_set(uint32_t val) { GPIO_REG = val & 1u; }
 200011a:	700007b7          	lui	a5,0x70000
 200011e:	4705                	li	a4,1
 2000120:	c398                	sw	a4,0(a5)
    PWM4_STOP_REG  = 1;
 2000122:	60000437          	lui	s0,0x60000
 2000126:	0421                	addi	s0,s0,8 # 60000008 <_data_lma+0x5dffe43e>
 2000128:	893a                	mv	s2,a4
    PWM4_START_REG = ((uint32_t)(duty_4b & 0xF) << 4) | (period_4b & 0xF);
 200012a:	600009b7          	lui	s3,0x60000
 200012e:	0991                	addi	s3,s3,4 # 60000004 <_data_lma+0x5dffe43a>
 2000130:	0ff00a13          	li	s4,255

    gpio_set(1);  /* transistor ON: circuito LED attivo */

    while (1) {
        pwm4_start(15, 15);  /* LED acceso */
        delay_ms(500);
 2000134:	1f400493          	li	s1,500
    PWM4_STOP_REG  = 1;
 2000138:	01242023          	sw	s2,0(s0)
    PWM4_START_REG = ((uint32_t)(duty_4b & 0xF) << 4) | (period_4b & 0xF);
 200013c:	0149a023          	sw	s4,0(s3)
 2000140:	8526                	mv	a0,s1
 2000142:	3fa1                	jal	200009a <delay_ms>
static inline void pwm4_stop(void) { PWM4_STOP_REG = 1; }
 2000144:	01242023          	sw	s2,0(s0)
        pwm4_stop();         /* LED spento */
        delay_ms(500);
 2000148:	8526                	mv	a0,s1
 200014a:	3f81                	jal	200009a <delay_ms>
    while (1) {
 200014c:	b7f5                	j	2000138 <main+0x6a>
	...

02000150 <__errno>:
 2000150:	010007b7          	lui	a5,0x1000
 2000154:	5587a503          	lw	a0,1368(a5) # 1000558 <_impure_ptr>
 2000158:	00008067          	ret

0200015c <__fp_lock>:
 200015c:	00000513          	li	a0,0
 2000160:	00008067          	ret

02000164 <stdio_exit_handler>:
 2000164:	01000637          	lui	a2,0x1000
 2000168:	020015b7          	lui	a1,0x2001
 200016c:	01000537          	lui	a0,0x1000
 2000170:	14060613          	addi	a2,a2,320 # 1000140 <__sglue>
 2000174:	6b458593          	addi	a1,a1,1716 # 20016b4 <_fclose_r>
 2000178:	00050513          	mv	a0,a0
 200017c:	3680006f          	j	20004e4 <_fwalk_sglue>

02000180 <cleanup_stdio>:
 2000180:	ff010113          	addi	sp,sp,-16
 2000184:	00452583          	lw	a1,4(a0) # 1000004 <_impure_data+0x4>
 2000188:	00812423          	sw	s0,8(sp)
 200018c:	01000437          	lui	s0,0x1000
 2000190:	00912223          	sw	s1,4(sp)
 2000194:	00112623          	sw	ra,12(sp)
 2000198:	56440413          	addi	s0,s0,1380 # 1000564 <__sf>
 200019c:	00050493          	mv	s1,a0
 20001a0:	00858463          	beq	a1,s0,20001a8 <cleanup_stdio+0x28>
 20001a4:	510010ef          	jal	20016b4 <_fclose_r>
 20001a8:	0084a583          	lw	a1,8(s1)
 20001ac:	06840793          	addi	a5,s0,104
 20001b0:	00f58663          	beq	a1,a5,20001bc <cleanup_stdio+0x3c>
 20001b4:	00048513          	mv	a0,s1
 20001b8:	4fc010ef          	jal	20016b4 <_fclose_r>
 20001bc:	00c4a583          	lw	a1,12(s1)
 20001c0:	0d040413          	addi	s0,s0,208
 20001c4:	00858e63          	beq	a1,s0,20001e0 <cleanup_stdio+0x60>
 20001c8:	00812403          	lw	s0,8(sp)
 20001cc:	00c12083          	lw	ra,12(sp)
 20001d0:	00048513          	mv	a0,s1
 20001d4:	00412483          	lw	s1,4(sp)
 20001d8:	01010113          	addi	sp,sp,16
 20001dc:	4d80106f          	j	20016b4 <_fclose_r>
 20001e0:	00c12083          	lw	ra,12(sp)
 20001e4:	00812403          	lw	s0,8(sp)
 20001e8:	00412483          	lw	s1,4(sp)
 20001ec:	01010113          	addi	sp,sp,16
 20001f0:	00008067          	ret

020001f4 <__fp_unlock>:
 20001f4:	00000513          	li	a0,0
 20001f8:	00008067          	ret

020001fc <global_stdio_init.part.0>:
 20001fc:	fe010113          	addi	sp,sp,-32
 2000200:	00812c23          	sw	s0,24(sp)
 2000204:	01000437          	lui	s0,0x1000
 2000208:	56440413          	addi	s0,s0,1380 # 1000564 <__sf>
 200020c:	020007b7          	lui	a5,0x2000
 2000210:	00112e23          	sw	ra,28(sp)
 2000214:	00912a23          	sw	s1,20(sp)
 2000218:	01212823          	sw	s2,16(sp)
 200021c:	01312623          	sw	s3,12(sp)
 2000220:	01412423          	sw	s4,8(sp)
 2000224:	00400693          	li	a3,4
 2000228:	01000737          	lui	a4,0x1000
 200022c:	16478793          	addi	a5,a5,356 # 2000164 <stdio_exit_handler>
 2000230:	05c40513          	addi	a0,s0,92
 2000234:	00800613          	li	a2,8
 2000238:	00000593          	li	a1,0
 200023c:	00d42623          	sw	a3,12(s0)
 2000240:	6cf72223          	sw	a5,1732(a4) # 10006c4 <__stdio_exit_handler>
 2000244:	00042023          	sw	zero,0(s0)
 2000248:	00042223          	sw	zero,4(s0)
 200024c:	00042423          	sw	zero,8(s0)
 2000250:	06042223          	sw	zero,100(s0)
 2000254:	00042823          	sw	zero,16(s0)
 2000258:	00042a23          	sw	zero,20(s0)
 200025c:	00042c23          	sw	zero,24(s0)
 2000260:	71c000ef          	jal	200097c <memset>
 2000264:	000107b7          	lui	a5,0x10
 2000268:	02000a37          	lui	s4,0x2000
 200026c:	020009b7          	lui	s3,0x2000
 2000270:	02000937          	lui	s2,0x2000
 2000274:	020004b7          	lui	s1,0x2000
 2000278:	598a0a13          	addi	s4,s4,1432 # 2000598 <__sread>
 200027c:	5fc98993          	addi	s3,s3,1532 # 20005fc <__swrite>
 2000280:	68490913          	addi	s2,s2,1668 # 2000684 <__sseek>
 2000284:	6e848493          	addi	s1,s1,1768 # 20006e8 <__sclose>
 2000288:	00978793          	addi	a5,a5,9 # 10009 <_impure_data-0xfefff7>
 200028c:	0c440513          	addi	a0,s0,196
 2000290:	00800613          	li	a2,8
 2000294:	00000593          	li	a1,0
 2000298:	06f42a23          	sw	a5,116(s0)
 200029c:	03442023          	sw	s4,32(s0)
 20002a0:	03342223          	sw	s3,36(s0)
 20002a4:	03242423          	sw	s2,40(s0)
 20002a8:	02942623          	sw	s1,44(s0)
 20002ac:	00842e23          	sw	s0,28(s0)
 20002b0:	06042423          	sw	zero,104(s0)
 20002b4:	06042623          	sw	zero,108(s0)
 20002b8:	06042823          	sw	zero,112(s0)
 20002bc:	0c042623          	sw	zero,204(s0)
 20002c0:	06042c23          	sw	zero,120(s0)
 20002c4:	06042e23          	sw	zero,124(s0)
 20002c8:	08042023          	sw	zero,128(s0)
 20002cc:	6b0000ef          	jal	200097c <memset>
 20002d0:	000207b7          	lui	a5,0x20
 20002d4:	06840713          	addi	a4,s0,104
 20002d8:	01278793          	addi	a5,a5,18 # 20012 <_impure_data-0xfdffee>
 20002dc:	12c40513          	addi	a0,s0,300
 20002e0:	00800613          	li	a2,8
 20002e4:	00000593          	li	a1,0
 20002e8:	09442423          	sw	s4,136(s0)
 20002ec:	09342623          	sw	s3,140(s0)
 20002f0:	09242823          	sw	s2,144(s0)
 20002f4:	08942a23          	sw	s1,148(s0)
 20002f8:	0cf42e23          	sw	a5,220(s0)
 20002fc:	0c042823          	sw	zero,208(s0)
 2000300:	0c042a23          	sw	zero,212(s0)
 2000304:	0c042c23          	sw	zero,216(s0)
 2000308:	12042a23          	sw	zero,308(s0)
 200030c:	0e042023          	sw	zero,224(s0)
 2000310:	0e042223          	sw	zero,228(s0)
 2000314:	0e042423          	sw	zero,232(s0)
 2000318:	08e42223          	sw	a4,132(s0)
 200031c:	660000ef          	jal	200097c <memset>
 2000320:	0d040793          	addi	a5,s0,208
 2000324:	0f442823          	sw	s4,240(s0)
 2000328:	0f342a23          	sw	s3,244(s0)
 200032c:	0f242c23          	sw	s2,248(s0)
 2000330:	0e942e23          	sw	s1,252(s0)
 2000334:	01c12083          	lw	ra,28(sp)
 2000338:	0ef42623          	sw	a5,236(s0)
 200033c:	01812403          	lw	s0,24(sp)
 2000340:	01412483          	lw	s1,20(sp)
 2000344:	01012903          	lw	s2,16(sp)
 2000348:	00c12983          	lw	s3,12(sp)
 200034c:	00812a03          	lw	s4,8(sp)
 2000350:	02010113          	addi	sp,sp,32
 2000354:	00008067          	ret

02000358 <__sfp>:
 2000358:	010007b7          	lui	a5,0x1000
 200035c:	6c47a783          	lw	a5,1732(a5) # 10006c4 <__stdio_exit_handler>
 2000360:	fe010113          	addi	sp,sp,-32
 2000364:	01312623          	sw	s3,12(sp)
 2000368:	00112e23          	sw	ra,28(sp)
 200036c:	00812c23          	sw	s0,24(sp)
 2000370:	00912a23          	sw	s1,20(sp)
 2000374:	01212823          	sw	s2,16(sp)
 2000378:	00050993          	mv	s3,a0
 200037c:	0e078863          	beqz	a5,200046c <__sfp+0x114>
 2000380:	01000937          	lui	s2,0x1000
 2000384:	14090913          	addi	s2,s2,320 # 1000140 <__sglue>
 2000388:	fff00493          	li	s1,-1
 200038c:	00492783          	lw	a5,4(s2)
 2000390:	00892403          	lw	s0,8(s2)
 2000394:	fff78793          	addi	a5,a5,-1
 2000398:	0007d863          	bgez	a5,20003a8 <__sfp+0x50>
 200039c:	0800006f          	j	200041c <__sfp+0xc4>
 20003a0:	06840413          	addi	s0,s0,104
 20003a4:	06978c63          	beq	a5,s1,200041c <__sfp+0xc4>
 20003a8:	00c41703          	lh	a4,12(s0)
 20003ac:	fff78793          	addi	a5,a5,-1
 20003b0:	fe0718e3          	bnez	a4,20003a0 <__sfp+0x48>
 20003b4:	ffff07b7          	lui	a5,0xffff0
 20003b8:	00178793          	addi	a5,a5,1 # ffff0001 <_data_lma+0xfdfee437>
 20003bc:	06042223          	sw	zero,100(s0)
 20003c0:	00042023          	sw	zero,0(s0)
 20003c4:	00042423          	sw	zero,8(s0)
 20003c8:	00042223          	sw	zero,4(s0)
 20003cc:	00042823          	sw	zero,16(s0)
 20003d0:	00042a23          	sw	zero,20(s0)
 20003d4:	00042c23          	sw	zero,24(s0)
 20003d8:	00f42623          	sw	a5,12(s0)
 20003dc:	00800613          	li	a2,8
 20003e0:	00000593          	li	a1,0
 20003e4:	05c40513          	addi	a0,s0,92
 20003e8:	594000ef          	jal	200097c <memset>
 20003ec:	02042823          	sw	zero,48(s0)
 20003f0:	02042a23          	sw	zero,52(s0)
 20003f4:	04042223          	sw	zero,68(s0)
 20003f8:	04042423          	sw	zero,72(s0)
 20003fc:	01c12083          	lw	ra,28(sp)
 2000400:	00040513          	mv	a0,s0
 2000404:	01812403          	lw	s0,24(sp)
 2000408:	01412483          	lw	s1,20(sp)
 200040c:	01012903          	lw	s2,16(sp)
 2000410:	00c12983          	lw	s3,12(sp)
 2000414:	02010113          	addi	sp,sp,32
 2000418:	00008067          	ret
 200041c:	00092403          	lw	s0,0(s2)
 2000420:	00040663          	beqz	s0,200042c <__sfp+0xd4>
 2000424:	00040913          	mv	s2,s0
 2000428:	f65ff06f          	j	200038c <__sfp+0x34>
 200042c:	1ac00593          	li	a1,428
 2000430:	00098513          	mv	a0,s3
 2000434:	261000ef          	jal	2000e94 <_malloc_r>
 2000438:	00050413          	mv	s0,a0
 200043c:	02050c63          	beqz	a0,2000474 <__sfp+0x11c>
 2000440:	00400793          	li	a5,4
 2000444:	00c50513          	addi	a0,a0,12
 2000448:	00042023          	sw	zero,0(s0)
 200044c:	00f42223          	sw	a5,4(s0)
 2000450:	00a42423          	sw	a0,8(s0)
 2000454:	1a000613          	li	a2,416
 2000458:	00000593          	li	a1,0
 200045c:	520000ef          	jal	200097c <memset>
 2000460:	00892023          	sw	s0,0(s2)
 2000464:	00040913          	mv	s2,s0
 2000468:	f25ff06f          	j	200038c <__sfp+0x34>
 200046c:	d91ff0ef          	jal	20001fc <global_stdio_init.part.0>
 2000470:	f11ff06f          	j	2000380 <__sfp+0x28>
 2000474:	00092023          	sw	zero,0(s2)
 2000478:	00c00793          	li	a5,12
 200047c:	00f9a023          	sw	a5,0(s3)
 2000480:	f7dff06f          	j	20003fc <__sfp+0xa4>

02000484 <__sinit>:
 2000484:	03452783          	lw	a5,52(a0)
 2000488:	00078463          	beqz	a5,2000490 <__sinit+0xc>
 200048c:	00008067          	ret
 2000490:	01000737          	lui	a4,0x1000
 2000494:	020007b7          	lui	a5,0x2000
 2000498:	6c472703          	lw	a4,1732(a4) # 10006c4 <__stdio_exit_handler>
 200049c:	18078793          	addi	a5,a5,384 # 2000180 <cleanup_stdio>
 20004a0:	02f52a23          	sw	a5,52(a0)
 20004a4:	fe0714e3          	bnez	a4,200048c <__sinit+0x8>
 20004a8:	d55ff06f          	j	20001fc <global_stdio_init.part.0>

020004ac <__sfp_lock_acquire>:
 20004ac:	00008067          	ret

020004b0 <__sfp_lock_release>:
 20004b0:	00008067          	ret

020004b4 <__fp_lock_all>:
 20004b4:	01000637          	lui	a2,0x1000
 20004b8:	020005b7          	lui	a1,0x2000
 20004bc:	14060613          	addi	a2,a2,320 # 1000140 <__sglue>
 20004c0:	15c58593          	addi	a1,a1,348 # 200015c <__fp_lock>
 20004c4:	00000513          	li	a0,0
 20004c8:	01c0006f          	j	20004e4 <_fwalk_sglue>

020004cc <__fp_unlock_all>:
 20004cc:	01000637          	lui	a2,0x1000
 20004d0:	020005b7          	lui	a1,0x2000
 20004d4:	14060613          	addi	a2,a2,320 # 1000140 <__sglue>
 20004d8:	1f458593          	addi	a1,a1,500 # 20001f4 <__fp_unlock>
 20004dc:	00000513          	li	a0,0
 20004e0:	0040006f          	j	20004e4 <_fwalk_sglue>

020004e4 <_fwalk_sglue>:
 20004e4:	fd010113          	addi	sp,sp,-48
 20004e8:	03212023          	sw	s2,32(sp)
 20004ec:	01312e23          	sw	s3,28(sp)
 20004f0:	01412c23          	sw	s4,24(sp)
 20004f4:	01512a23          	sw	s5,20(sp)
 20004f8:	01612823          	sw	s6,16(sp)
 20004fc:	01712623          	sw	s7,12(sp)
 2000500:	02112623          	sw	ra,44(sp)
 2000504:	02812423          	sw	s0,40(sp)
 2000508:	02912223          	sw	s1,36(sp)
 200050c:	00050b13          	mv	s6,a0
 2000510:	00058b93          	mv	s7,a1
 2000514:	00060a93          	mv	s5,a2
 2000518:	00000a13          	li	s4,0
 200051c:	00100993          	li	s3,1
 2000520:	fff00913          	li	s2,-1
 2000524:	004aa483          	lw	s1,4(s5)
 2000528:	008aa403          	lw	s0,8(s5)
 200052c:	fff48493          	addi	s1,s1,-1
 2000530:	0204c863          	bltz	s1,2000560 <_fwalk_sglue+0x7c>
 2000534:	00c45783          	lhu	a5,12(s0)
 2000538:	00f9fe63          	bgeu	s3,a5,2000554 <_fwalk_sglue+0x70>
 200053c:	00e41783          	lh	a5,14(s0)
 2000540:	00040593          	mv	a1,s0
 2000544:	000b0513          	mv	a0,s6
 2000548:	01278663          	beq	a5,s2,2000554 <_fwalk_sglue+0x70>
 200054c:	000b80e7          	jalr	s7
 2000550:	00aa6a33          	or	s4,s4,a0
 2000554:	fff48493          	addi	s1,s1,-1
 2000558:	06840413          	addi	s0,s0,104
 200055c:	fd249ce3          	bne	s1,s2,2000534 <_fwalk_sglue+0x50>
 2000560:	000aaa83          	lw	s5,0(s5)
 2000564:	fc0a90e3          	bnez	s5,2000524 <_fwalk_sglue+0x40>
 2000568:	02c12083          	lw	ra,44(sp)
 200056c:	02812403          	lw	s0,40(sp)
 2000570:	02412483          	lw	s1,36(sp)
 2000574:	02012903          	lw	s2,32(sp)
 2000578:	01c12983          	lw	s3,28(sp)
 200057c:	01412a83          	lw	s5,20(sp)
 2000580:	01012b03          	lw	s6,16(sp)
 2000584:	00c12b83          	lw	s7,12(sp)
 2000588:	000a0513          	mv	a0,s4
 200058c:	01812a03          	lw	s4,24(sp)
 2000590:	03010113          	addi	sp,sp,48
 2000594:	00008067          	ret

02000598 <__sread>:
 2000598:	ff010113          	addi	sp,sp,-16
 200059c:	00812423          	sw	s0,8(sp)
 20005a0:	00058413          	mv	s0,a1
 20005a4:	00e59583          	lh	a1,14(a1)
 20005a8:	00112623          	sw	ra,12(sp)
 20005ac:	2f8000ef          	jal	20008a4 <_read_r>
 20005b0:	02054063          	bltz	a0,20005d0 <__sread+0x38>
 20005b4:	05042783          	lw	a5,80(s0)
 20005b8:	00c12083          	lw	ra,12(sp)
 20005bc:	00a787b3          	add	a5,a5,a0
 20005c0:	04f42823          	sw	a5,80(s0)
 20005c4:	00812403          	lw	s0,8(sp)
 20005c8:	01010113          	addi	sp,sp,16
 20005cc:	00008067          	ret
 20005d0:	00c45783          	lhu	a5,12(s0)
 20005d4:	fffff737          	lui	a4,0xfffff
 20005d8:	fff70713          	addi	a4,a4,-1 # ffffefff <_data_lma+0xfdffd435>
 20005dc:	00e7f7b3          	and	a5,a5,a4
 20005e0:	00c12083          	lw	ra,12(sp)
 20005e4:	00f41623          	sh	a5,12(s0)
 20005e8:	00812403          	lw	s0,8(sp)
 20005ec:	01010113          	addi	sp,sp,16
 20005f0:	00008067          	ret

020005f4 <__seofread>:
 20005f4:	00000513          	li	a0,0
 20005f8:	00008067          	ret

020005fc <__swrite>:
 20005fc:	00c59783          	lh	a5,12(a1)
 2000600:	fe010113          	addi	sp,sp,-32
 2000604:	00812c23          	sw	s0,24(sp)
 2000608:	00912a23          	sw	s1,20(sp)
 200060c:	01212823          	sw	s2,16(sp)
 2000610:	01312623          	sw	s3,12(sp)
 2000614:	00112e23          	sw	ra,28(sp)
 2000618:	1007f713          	andi	a4,a5,256
 200061c:	00058413          	mv	s0,a1
 2000620:	00060913          	mv	s2,a2
 2000624:	00068993          	mv	s3,a3
 2000628:	00050493          	mv	s1,a0
 200062c:	04071063          	bnez	a4,200066c <__swrite+0x70>
 2000630:	fffff737          	lui	a4,0xfffff
 2000634:	fff70713          	addi	a4,a4,-1 # ffffefff <_data_lma+0xfdffd435>
 2000638:	00e7f7b3          	and	a5,a5,a4
 200063c:	00e41583          	lh	a1,14(s0)
 2000640:	00f41623          	sh	a5,12(s0)
 2000644:	01812403          	lw	s0,24(sp)
 2000648:	01c12083          	lw	ra,28(sp)
 200064c:	00098693          	mv	a3,s3
 2000650:	00090613          	mv	a2,s2
 2000654:	00c12983          	lw	s3,12(sp)
 2000658:	01012903          	lw	s2,16(sp)
 200065c:	00048513          	mv	a0,s1
 2000660:	01412483          	lw	s1,20(sp)
 2000664:	02010113          	addi	sp,sp,32
 2000668:	2a80006f          	j	2000910 <_write_r>
 200066c:	00e59583          	lh	a1,14(a1)
 2000670:	00200693          	li	a3,2
 2000674:	00000613          	li	a2,0
 2000678:	1c0000ef          	jal	2000838 <_lseek_r>
 200067c:	00c41783          	lh	a5,12(s0)
 2000680:	fb1ff06f          	j	2000630 <__swrite+0x34>

02000684 <__sseek>:
 2000684:	ff010113          	addi	sp,sp,-16
 2000688:	00812423          	sw	s0,8(sp)
 200068c:	00058413          	mv	s0,a1
 2000690:	00e59583          	lh	a1,14(a1)
 2000694:	00112623          	sw	ra,12(sp)
 2000698:	1a0000ef          	jal	2000838 <_lseek_r>
 200069c:	fff00713          	li	a4,-1
 20006a0:	00c41783          	lh	a5,12(s0)
 20006a4:	02e50263          	beq	a0,a4,20006c8 <__sseek+0x44>
 20006a8:	00001737          	lui	a4,0x1
 20006ac:	00e7e7b3          	or	a5,a5,a4
 20006b0:	00c12083          	lw	ra,12(sp)
 20006b4:	04a42823          	sw	a0,80(s0)
 20006b8:	00f41623          	sh	a5,12(s0)
 20006bc:	00812403          	lw	s0,8(sp)
 20006c0:	01010113          	addi	sp,sp,16
 20006c4:	00008067          	ret
 20006c8:	fffff737          	lui	a4,0xfffff
 20006cc:	fff70713          	addi	a4,a4,-1 # ffffefff <_data_lma+0xfdffd435>
 20006d0:	00e7f7b3          	and	a5,a5,a4
 20006d4:	00c12083          	lw	ra,12(sp)
 20006d8:	00f41623          	sh	a5,12(s0)
 20006dc:	00812403          	lw	s0,8(sp)
 20006e0:	01010113          	addi	sp,sp,16
 20006e4:	00008067          	ret

020006e8 <__sclose>:
 20006e8:	00e59583          	lh	a1,14(a1)
 20006ec:	0040006f          	j	20006f0 <_close_r>

020006f0 <_close_r>:
 20006f0:	ff010113          	addi	sp,sp,-16
 20006f4:	00812423          	sw	s0,8(sp)
 20006f8:	00912223          	sw	s1,4(sp)
 20006fc:	00050413          	mv	s0,a0
 2000700:	010004b7          	lui	s1,0x1000
 2000704:	00058513          	mv	a0,a1
 2000708:	00112623          	sw	ra,12(sp)
 200070c:	6c04a423          	sw	zero,1736(s1) # 10006c8 <errno>
 2000710:	45c010ef          	jal	2001b6c <_close>
 2000714:	fff00793          	li	a5,-1
 2000718:	00f50c63          	beq	a0,a5,2000730 <_close_r+0x40>
 200071c:	00c12083          	lw	ra,12(sp)
 2000720:	00812403          	lw	s0,8(sp)
 2000724:	00412483          	lw	s1,4(sp)
 2000728:	01010113          	addi	sp,sp,16
 200072c:	00008067          	ret
 2000730:	6c84a783          	lw	a5,1736(s1)
 2000734:	fe0784e3          	beqz	a5,200071c <_close_r+0x2c>
 2000738:	00c12083          	lw	ra,12(sp)
 200073c:	00f42023          	sw	a5,0(s0)
 2000740:	00812403          	lw	s0,8(sp)
 2000744:	00412483          	lw	s1,4(sp)
 2000748:	01010113          	addi	sp,sp,16
 200074c:	00008067          	ret

02000750 <_reclaim_reent>:
 2000750:	010007b7          	lui	a5,0x1000
 2000754:	5587a783          	lw	a5,1368(a5) # 1000558 <_impure_ptr>
 2000758:	0ca78e63          	beq	a5,a0,2000834 <_reclaim_reent+0xe4>
 200075c:	04452583          	lw	a1,68(a0)
 2000760:	fe010113          	addi	sp,sp,-32
 2000764:	00912a23          	sw	s1,20(sp)
 2000768:	00112e23          	sw	ra,28(sp)
 200076c:	00812c23          	sw	s0,24(sp)
 2000770:	00050493          	mv	s1,a0
 2000774:	04058863          	beqz	a1,20007c4 <_reclaim_reent+0x74>
 2000778:	01212823          	sw	s2,16(sp)
 200077c:	01312623          	sw	s3,12(sp)
 2000780:	00000913          	li	s2,0
 2000784:	08000993          	li	s3,128
 2000788:	012587b3          	add	a5,a1,s2
 200078c:	0007a403          	lw	s0,0(a5)
 2000790:	00040e63          	beqz	s0,20007ac <_reclaim_reent+0x5c>
 2000794:	00040593          	mv	a1,s0
 2000798:	00042403          	lw	s0,0(s0)
 200079c:	00048513          	mv	a0,s1
 20007a0:	3fc000ef          	jal	2000b9c <_free_r>
 20007a4:	fe0418e3          	bnez	s0,2000794 <_reclaim_reent+0x44>
 20007a8:	0444a583          	lw	a1,68(s1)
 20007ac:	00490913          	addi	s2,s2,4
 20007b0:	fd391ce3          	bne	s2,s3,2000788 <_reclaim_reent+0x38>
 20007b4:	00048513          	mv	a0,s1
 20007b8:	3e4000ef          	jal	2000b9c <_free_r>
 20007bc:	01012903          	lw	s2,16(sp)
 20007c0:	00c12983          	lw	s3,12(sp)
 20007c4:	0384a583          	lw	a1,56(s1)
 20007c8:	00058663          	beqz	a1,20007d4 <_reclaim_reent+0x84>
 20007cc:	00048513          	mv	a0,s1
 20007d0:	3cc000ef          	jal	2000b9c <_free_r>
 20007d4:	0404a403          	lw	s0,64(s1)
 20007d8:	00040c63          	beqz	s0,20007f0 <_reclaim_reent+0xa0>
 20007dc:	00040593          	mv	a1,s0
 20007e0:	00042403          	lw	s0,0(s0)
 20007e4:	00048513          	mv	a0,s1
 20007e8:	3b4000ef          	jal	2000b9c <_free_r>
 20007ec:	fe0418e3          	bnez	s0,20007dc <_reclaim_reent+0x8c>
 20007f0:	04c4a583          	lw	a1,76(s1)
 20007f4:	00058663          	beqz	a1,2000800 <_reclaim_reent+0xb0>
 20007f8:	00048513          	mv	a0,s1
 20007fc:	3a0000ef          	jal	2000b9c <_free_r>
 2000800:	0344a783          	lw	a5,52(s1)
 2000804:	00078e63          	beqz	a5,2000820 <_reclaim_reent+0xd0>
 2000808:	01812403          	lw	s0,24(sp)
 200080c:	01c12083          	lw	ra,28(sp)
 2000810:	00048513          	mv	a0,s1
 2000814:	01412483          	lw	s1,20(sp)
 2000818:	02010113          	addi	sp,sp,32
 200081c:	00078067          	jr	a5
 2000820:	01c12083          	lw	ra,28(sp)
 2000824:	01812403          	lw	s0,24(sp)
 2000828:	01412483          	lw	s1,20(sp)
 200082c:	02010113          	addi	sp,sp,32
 2000830:	00008067          	ret
 2000834:	00008067          	ret

02000838 <_lseek_r>:
 2000838:	ff010113          	addi	sp,sp,-16
 200083c:	00058713          	mv	a4,a1
 2000840:	00812423          	sw	s0,8(sp)
 2000844:	00912223          	sw	s1,4(sp)
 2000848:	00060593          	mv	a1,a2
 200084c:	00050413          	mv	s0,a0
 2000850:	00068613          	mv	a2,a3
 2000854:	010004b7          	lui	s1,0x1000
 2000858:	00070513          	mv	a0,a4
 200085c:	00112623          	sw	ra,12(sp)
 2000860:	6c04a423          	sw	zero,1736(s1) # 10006c8 <errno>
 2000864:	31c010ef          	jal	2001b80 <_lseek>
 2000868:	fff00793          	li	a5,-1
 200086c:	00f50c63          	beq	a0,a5,2000884 <_lseek_r+0x4c>
 2000870:	00c12083          	lw	ra,12(sp)
 2000874:	00812403          	lw	s0,8(sp)
 2000878:	00412483          	lw	s1,4(sp)
 200087c:	01010113          	addi	sp,sp,16
 2000880:	00008067          	ret
 2000884:	6c84a783          	lw	a5,1736(s1)
 2000888:	fe0784e3          	beqz	a5,2000870 <_lseek_r+0x38>
 200088c:	00c12083          	lw	ra,12(sp)
 2000890:	00f42023          	sw	a5,0(s0)
 2000894:	00812403          	lw	s0,8(sp)
 2000898:	00412483          	lw	s1,4(sp)
 200089c:	01010113          	addi	sp,sp,16
 20008a0:	00008067          	ret

020008a4 <_read_r>:
 20008a4:	ff010113          	addi	sp,sp,-16
 20008a8:	00058713          	mv	a4,a1
 20008ac:	00812423          	sw	s0,8(sp)
 20008b0:	00912223          	sw	s1,4(sp)
 20008b4:	00060593          	mv	a1,a2
 20008b8:	00050413          	mv	s0,a0
 20008bc:	00068613          	mv	a2,a3
 20008c0:	010004b7          	lui	s1,0x1000
 20008c4:	00070513          	mv	a0,a4
 20008c8:	00112623          	sw	ra,12(sp)
 20008cc:	6c04a423          	sw	zero,1736(s1) # 10006c8 <errno>
 20008d0:	2c4010ef          	jal	2001b94 <_read>
 20008d4:	fff00793          	li	a5,-1
 20008d8:	00f50c63          	beq	a0,a5,20008f0 <_read_r+0x4c>
 20008dc:	00c12083          	lw	ra,12(sp)
 20008e0:	00812403          	lw	s0,8(sp)
 20008e4:	00412483          	lw	s1,4(sp)
 20008e8:	01010113          	addi	sp,sp,16
 20008ec:	00008067          	ret
 20008f0:	6c84a783          	lw	a5,1736(s1)
 20008f4:	fe0784e3          	beqz	a5,20008dc <_read_r+0x38>
 20008f8:	00c12083          	lw	ra,12(sp)
 20008fc:	00f42023          	sw	a5,0(s0)
 2000900:	00812403          	lw	s0,8(sp)
 2000904:	00412483          	lw	s1,4(sp)
 2000908:	01010113          	addi	sp,sp,16
 200090c:	00008067          	ret

02000910 <_write_r>:
 2000910:	ff010113          	addi	sp,sp,-16
 2000914:	00058713          	mv	a4,a1
 2000918:	00812423          	sw	s0,8(sp)
 200091c:	00912223          	sw	s1,4(sp)
 2000920:	00060593          	mv	a1,a2
 2000924:	00050413          	mv	s0,a0
 2000928:	00068613          	mv	a2,a3
 200092c:	010004b7          	lui	s1,0x1000
 2000930:	00070513          	mv	a0,a4
 2000934:	00112623          	sw	ra,12(sp)
 2000938:	6c04a423          	sw	zero,1736(s1) # 10006c8 <errno>
 200093c:	26c010ef          	jal	2001ba8 <_write>
 2000940:	fff00793          	li	a5,-1
 2000944:	00f50c63          	beq	a0,a5,200095c <_write_r+0x4c>
 2000948:	00c12083          	lw	ra,12(sp)
 200094c:	00812403          	lw	s0,8(sp)
 2000950:	00412483          	lw	s1,4(sp)
 2000954:	01010113          	addi	sp,sp,16
 2000958:	00008067          	ret
 200095c:	6c84a783          	lw	a5,1736(s1)
 2000960:	fe0784e3          	beqz	a5,2000948 <_write_r+0x38>
 2000964:	00c12083          	lw	ra,12(sp)
 2000968:	00f42023          	sw	a5,0(s0)
 200096c:	00812403          	lw	s0,8(sp)
 2000970:	00412483          	lw	s1,4(sp)
 2000974:	01010113          	addi	sp,sp,16
 2000978:	00008067          	ret

0200097c <memset>:
 200097c:	00f00313          	li	t1,15
 2000980:	00050713          	mv	a4,a0
 2000984:	02c37e63          	bgeu	t1,a2,20009c0 <memset+0x44>
 2000988:	00f77793          	andi	a5,a4,15
 200098c:	0a079063          	bnez	a5,2000a2c <memset+0xb0>
 2000990:	08059263          	bnez	a1,2000a14 <memset+0x98>
 2000994:	ff067693          	andi	a3,a2,-16
 2000998:	00f67613          	andi	a2,a2,15
 200099c:	00e686b3          	add	a3,a3,a4
 20009a0:	00b72023          	sw	a1,0(a4)
 20009a4:	00b72223          	sw	a1,4(a4)
 20009a8:	00b72423          	sw	a1,8(a4)
 20009ac:	00b72623          	sw	a1,12(a4)
 20009b0:	01070713          	addi	a4,a4,16
 20009b4:	fed766e3          	bltu	a4,a3,20009a0 <memset+0x24>
 20009b8:	00061463          	bnez	a2,20009c0 <memset+0x44>
 20009bc:	00008067          	ret
 20009c0:	40c306b3          	sub	a3,t1,a2
 20009c4:	00269693          	slli	a3,a3,0x2
 20009c8:	00000297          	auipc	t0,0x0
 20009cc:	005686b3          	add	a3,a3,t0
 20009d0:	00c68067          	jr	12(a3)
 20009d4:	00b70723          	sb	a1,14(a4)
 20009d8:	00b706a3          	sb	a1,13(a4)
 20009dc:	00b70623          	sb	a1,12(a4)
 20009e0:	00b705a3          	sb	a1,11(a4)
 20009e4:	00b70523          	sb	a1,10(a4)
 20009e8:	00b704a3          	sb	a1,9(a4)
 20009ec:	00b70423          	sb	a1,8(a4)
 20009f0:	00b703a3          	sb	a1,7(a4)
 20009f4:	00b70323          	sb	a1,6(a4)
 20009f8:	00b702a3          	sb	a1,5(a4)
 20009fc:	00b70223          	sb	a1,4(a4)
 2000a00:	00b701a3          	sb	a1,3(a4)
 2000a04:	00b70123          	sb	a1,2(a4)
 2000a08:	00b700a3          	sb	a1,1(a4)
 2000a0c:	00b70023          	sb	a1,0(a4)
 2000a10:	00008067          	ret
 2000a14:	0ff5f593          	zext.b	a1,a1
 2000a18:	00859693          	slli	a3,a1,0x8
 2000a1c:	00d5e5b3          	or	a1,a1,a3
 2000a20:	01059693          	slli	a3,a1,0x10
 2000a24:	00d5e5b3          	or	a1,a1,a3
 2000a28:	f6dff06f          	j	2000994 <memset+0x18>
 2000a2c:	00279693          	slli	a3,a5,0x2
 2000a30:	00000297          	auipc	t0,0x0
 2000a34:	005686b3          	add	a3,a3,t0
 2000a38:	00008293          	mv	t0,ra
 2000a3c:	fa0680e7          	jalr	-96(a3)
 2000a40:	00028093          	mv	ra,t0
 2000a44:	ff078793          	addi	a5,a5,-16
 2000a48:	40f70733          	sub	a4,a4,a5
 2000a4c:	00f60633          	add	a2,a2,a5
 2000a50:	f6c378e3          	bgeu	t1,a2,20009c0 <memset+0x44>
 2000a54:	f3dff06f          	j	2000990 <memset+0x14>

02000a58 <_malloc_trim_r>:
 2000a58:	fe010113          	addi	sp,sp,-32
 2000a5c:	01312623          	sw	s3,12(sp)
 2000a60:	010009b7          	lui	s3,0x1000
 2000a64:	00812c23          	sw	s0,24(sp)
 2000a68:	00912a23          	sw	s1,20(sp)
 2000a6c:	01212823          	sw	s2,16(sp)
 2000a70:	01412423          	sw	s4,8(sp)
 2000a74:	00112e23          	sw	ra,28(sp)
 2000a78:	00058a13          	mv	s4,a1
 2000a7c:	00050913          	mv	s2,a0
 2000a80:	14c98993          	addi	s3,s3,332 # 100014c <__malloc_av_>
 2000a84:	429000ef          	jal	20016ac <__malloc_lock>
 2000a88:	0089a783          	lw	a5,8(s3)
 2000a8c:	00001437          	lui	s0,0x1
 2000a90:	fef40413          	addi	s0,s0,-17 # fef <_impure_data-0xfff011>
 2000a94:	0047a483          	lw	s1,4(a5)
 2000a98:	000017b7          	lui	a5,0x1
 2000a9c:	ffc4f493          	andi	s1,s1,-4
 2000aa0:	00848433          	add	s0,s1,s0
 2000aa4:	41440433          	sub	s0,s0,s4
 2000aa8:	00c45413          	srli	s0,s0,0xc
 2000aac:	fff40413          	addi	s0,s0,-1
 2000ab0:	00c41413          	slli	s0,s0,0xc
 2000ab4:	00f44e63          	blt	s0,a5,2000ad0 <_malloc_trim_r+0x78>
 2000ab8:	00000593          	li	a1,0
 2000abc:	00090513          	mv	a0,s2
 2000ac0:	04c010ef          	jal	2001b0c <_sbrk_r>
 2000ac4:	0089a783          	lw	a5,8(s3)
 2000ac8:	009787b3          	add	a5,a5,s1
 2000acc:	02f50863          	beq	a0,a5,2000afc <_malloc_trim_r+0xa4>
 2000ad0:	00090513          	mv	a0,s2
 2000ad4:	3dd000ef          	jal	20016b0 <__malloc_unlock>
 2000ad8:	01c12083          	lw	ra,28(sp)
 2000adc:	01812403          	lw	s0,24(sp)
 2000ae0:	01412483          	lw	s1,20(sp)
 2000ae4:	01012903          	lw	s2,16(sp)
 2000ae8:	00c12983          	lw	s3,12(sp)
 2000aec:	00812a03          	lw	s4,8(sp)
 2000af0:	00000513          	li	a0,0
 2000af4:	02010113          	addi	sp,sp,32
 2000af8:	00008067          	ret
 2000afc:	408005b3          	neg	a1,s0
 2000b00:	00090513          	mv	a0,s2
 2000b04:	008010ef          	jal	2001b0c <_sbrk_r>
 2000b08:	fff00793          	li	a5,-1
 2000b0c:	04f50a63          	beq	a0,a5,2000b60 <_malloc_trim_r+0x108>
 2000b10:	010007b7          	lui	a5,0x1000
 2000b14:	69c78793          	addi	a5,a5,1692 # 100069c <__malloc_current_mallinfo>
 2000b18:	0089a683          	lw	a3,8(s3)
 2000b1c:	0007a703          	lw	a4,0(a5)
 2000b20:	408484b3          	sub	s1,s1,s0
 2000b24:	0014e493          	ori	s1,s1,1
 2000b28:	00090513          	mv	a0,s2
 2000b2c:	40870733          	sub	a4,a4,s0
 2000b30:	0096a223          	sw	s1,4(a3)
 2000b34:	00e7a023          	sw	a4,0(a5)
 2000b38:	379000ef          	jal	20016b0 <__malloc_unlock>
 2000b3c:	01c12083          	lw	ra,28(sp)
 2000b40:	01812403          	lw	s0,24(sp)
 2000b44:	01412483          	lw	s1,20(sp)
 2000b48:	01012903          	lw	s2,16(sp)
 2000b4c:	00c12983          	lw	s3,12(sp)
 2000b50:	00812a03          	lw	s4,8(sp)
 2000b54:	00100513          	li	a0,1
 2000b58:	02010113          	addi	sp,sp,32
 2000b5c:	00008067          	ret
 2000b60:	00000593          	li	a1,0
 2000b64:	00090513          	mv	a0,s2
 2000b68:	7a5000ef          	jal	2001b0c <_sbrk_r>
 2000b6c:	0089a703          	lw	a4,8(s3)
 2000b70:	00f00693          	li	a3,15
 2000b74:	40e507b3          	sub	a5,a0,a4
 2000b78:	f4f6dce3          	bge	a3,a5,2000ad0 <_malloc_trim_r+0x78>
 2000b7c:	010006b7          	lui	a3,0x1000
 2000b80:	55c6a603          	lw	a2,1372(a3) # 100055c <__malloc_sbrk_base>
 2000b84:	0017e793          	ori	a5,a5,1
 2000b88:	010006b7          	lui	a3,0x1000
 2000b8c:	40c50533          	sub	a0,a0,a2
 2000b90:	00f72223          	sw	a5,4(a4)
 2000b94:	68a6ae23          	sw	a0,1692(a3) # 100069c <__malloc_current_mallinfo>
 2000b98:	f39ff06f          	j	2000ad0 <_malloc_trim_r+0x78>

02000b9c <_free_r>:
 2000b9c:	12058663          	beqz	a1,2000cc8 <_free_r+0x12c>
 2000ba0:	ff010113          	addi	sp,sp,-16
 2000ba4:	00812423          	sw	s0,8(sp)
 2000ba8:	00912223          	sw	s1,4(sp)
 2000bac:	00058413          	mv	s0,a1
 2000bb0:	00050493          	mv	s1,a0
 2000bb4:	00112623          	sw	ra,12(sp)
 2000bb8:	2f5000ef          	jal	20016ac <__malloc_lock>
 2000bbc:	ffc42503          	lw	a0,-4(s0)
 2000bc0:	ff840713          	addi	a4,s0,-8
 2000bc4:	010005b7          	lui	a1,0x1000
 2000bc8:	ffe57793          	andi	a5,a0,-2
 2000bcc:	00f70633          	add	a2,a4,a5
 2000bd0:	14c58593          	addi	a1,a1,332 # 100014c <__malloc_av_>
 2000bd4:	00462683          	lw	a3,4(a2)
 2000bd8:	0085a803          	lw	a6,8(a1)
 2000bdc:	00157893          	andi	a7,a0,1
 2000be0:	ffc6f693          	andi	a3,a3,-4
 2000be4:	18c80c63          	beq	a6,a2,2000d7c <_free_r+0x1e0>
 2000be8:	00d62223          	sw	a3,4(a2)
 2000bec:	00d60833          	add	a6,a2,a3
 2000bf0:	00482803          	lw	a6,4(a6)
 2000bf4:	00187813          	andi	a6,a6,1
 2000bf8:	08089c63          	bnez	a7,2000c90 <_free_r+0xf4>
 2000bfc:	ff842303          	lw	t1,-8(s0)
 2000c00:	01000537          	lui	a0,0x1000
 2000c04:	15450513          	addi	a0,a0,340 # 1000154 <__malloc_av_+0x8>
 2000c08:	40670733          	sub	a4,a4,t1
 2000c0c:	00872883          	lw	a7,8(a4)
 2000c10:	006787b3          	add	a5,a5,t1
 2000c14:	12a88e63          	beq	a7,a0,2000d50 <_free_r+0x1b4>
 2000c18:	00c72303          	lw	t1,12(a4)
 2000c1c:	0068a623          	sw	t1,12(a7)
 2000c20:	01132423          	sw	a7,8(t1)
 2000c24:	1a080463          	beqz	a6,2000dcc <_free_r+0x230>
 2000c28:	0017e693          	ori	a3,a5,1
 2000c2c:	00d72223          	sw	a3,4(a4)
 2000c30:	00f62023          	sw	a5,0(a2)
 2000c34:	1ff00693          	li	a3,511
 2000c38:	0af6e463          	bltu	a3,a5,2000ce0 <_free_r+0x144>
 2000c3c:	ff87f693          	andi	a3,a5,-8
 2000c40:	00868693          	addi	a3,a3,8
 2000c44:	0045a503          	lw	a0,4(a1)
 2000c48:	00d586b3          	add	a3,a1,a3
 2000c4c:	0006a603          	lw	a2,0(a3)
 2000c50:	0057d813          	srli	a6,a5,0x5
 2000c54:	00100793          	li	a5,1
 2000c58:	010797b3          	sll	a5,a5,a6
 2000c5c:	00a7e7b3          	or	a5,a5,a0
 2000c60:	ff868513          	addi	a0,a3,-8
 2000c64:	00c72423          	sw	a2,8(a4)
 2000c68:	00a72623          	sw	a0,12(a4)
 2000c6c:	00f5a223          	sw	a5,4(a1)
 2000c70:	00e6a023          	sw	a4,0(a3)
 2000c74:	00e62623          	sw	a4,12(a2)
 2000c78:	00812403          	lw	s0,8(sp)
 2000c7c:	00c12083          	lw	ra,12(sp)
 2000c80:	00048513          	mv	a0,s1
 2000c84:	00412483          	lw	s1,4(sp)
 2000c88:	01010113          	addi	sp,sp,16
 2000c8c:	2250006f          	j	20016b0 <__malloc_unlock>
 2000c90:	02081e63          	bnez	a6,2000ccc <_free_r+0x130>
 2000c94:	01000537          	lui	a0,0x1000
 2000c98:	00d787b3          	add	a5,a5,a3
 2000c9c:	15450513          	addi	a0,a0,340 # 1000154 <__malloc_av_+0x8>
 2000ca0:	00862683          	lw	a3,8(a2)
 2000ca4:	0017e893          	ori	a7,a5,1
 2000ca8:	00f70833          	add	a6,a4,a5
 2000cac:	16a68663          	beq	a3,a0,2000e18 <_free_r+0x27c>
 2000cb0:	00c62603          	lw	a2,12(a2)
 2000cb4:	00c6a623          	sw	a2,12(a3)
 2000cb8:	00d62423          	sw	a3,8(a2)
 2000cbc:	01172223          	sw	a7,4(a4)
 2000cc0:	00f82023          	sw	a5,0(a6)
 2000cc4:	f71ff06f          	j	2000c34 <_free_r+0x98>
 2000cc8:	00008067          	ret
 2000ccc:	00156513          	ori	a0,a0,1
 2000cd0:	fea42e23          	sw	a0,-4(s0)
 2000cd4:	00f62023          	sw	a5,0(a2)
 2000cd8:	1ff00693          	li	a3,511
 2000cdc:	f6f6f0e3          	bgeu	a3,a5,2000c3c <_free_r+0xa0>
 2000ce0:	0097d693          	srli	a3,a5,0x9
 2000ce4:	00400613          	li	a2,4
 2000ce8:	0ed66663          	bltu	a2,a3,2000dd4 <_free_r+0x238>
 2000cec:	0067d693          	srli	a3,a5,0x6
 2000cf0:	03968513          	addi	a0,a3,57
 2000cf4:	00351513          	slli	a0,a0,0x3
 2000cf8:	03868613          	addi	a2,a3,56
 2000cfc:	00a58533          	add	a0,a1,a0
 2000d00:	00052683          	lw	a3,0(a0)
 2000d04:	ff850513          	addi	a0,a0,-8
 2000d08:	00d51863          	bne	a0,a3,2000d18 <_free_r+0x17c>
 2000d0c:	1280006f          	j	2000e34 <_free_r+0x298>
 2000d10:	0086a683          	lw	a3,8(a3)
 2000d14:	00d50863          	beq	a0,a3,2000d24 <_free_r+0x188>
 2000d18:	0046a603          	lw	a2,4(a3)
 2000d1c:	ffc67613          	andi	a2,a2,-4
 2000d20:	fec7e8e3          	bltu	a5,a2,2000d10 <_free_r+0x174>
 2000d24:	00c6a503          	lw	a0,12(a3)
 2000d28:	00a72623          	sw	a0,12(a4)
 2000d2c:	00d72423          	sw	a3,8(a4)
 2000d30:	00812403          	lw	s0,8(sp)
 2000d34:	00e52423          	sw	a4,8(a0)
 2000d38:	00c12083          	lw	ra,12(sp)
 2000d3c:	00048513          	mv	a0,s1
 2000d40:	00412483          	lw	s1,4(sp)
 2000d44:	00e6a623          	sw	a4,12(a3)
 2000d48:	01010113          	addi	sp,sp,16
 2000d4c:	1650006f          	j	20016b0 <__malloc_unlock>
 2000d50:	0a081463          	bnez	a6,2000df8 <_free_r+0x25c>
 2000d54:	00c62583          	lw	a1,12(a2)
 2000d58:	00862603          	lw	a2,8(a2)
 2000d5c:	00f686b3          	add	a3,a3,a5
 2000d60:	0016e793          	ori	a5,a3,1
 2000d64:	00b62623          	sw	a1,12(a2)
 2000d68:	00c5a423          	sw	a2,8(a1)
 2000d6c:	00f72223          	sw	a5,4(a4)
 2000d70:	00d70733          	add	a4,a4,a3
 2000d74:	00d72023          	sw	a3,0(a4)
 2000d78:	f01ff06f          	j	2000c78 <_free_r+0xdc>
 2000d7c:	00d786b3          	add	a3,a5,a3
 2000d80:	02089063          	bnez	a7,2000da0 <_free_r+0x204>
 2000d84:	ff842503          	lw	a0,-8(s0)
 2000d88:	40a70733          	sub	a4,a4,a0
 2000d8c:	00c72783          	lw	a5,12(a4)
 2000d90:	00872603          	lw	a2,8(a4)
 2000d94:	00a686b3          	add	a3,a3,a0
 2000d98:	00f62623          	sw	a5,12(a2)
 2000d9c:	00c7a423          	sw	a2,8(a5)
 2000da0:	010007b7          	lui	a5,0x1000
 2000da4:	0016e613          	ori	a2,a3,1
 2000da8:	5607a783          	lw	a5,1376(a5) # 1000560 <__malloc_trim_threshold>
 2000dac:	00c72223          	sw	a2,4(a4)
 2000db0:	00e5a423          	sw	a4,8(a1)
 2000db4:	ecf6e2e3          	bltu	a3,a5,2000c78 <_free_r+0xdc>
 2000db8:	010007b7          	lui	a5,0x1000
 2000dbc:	6d47a583          	lw	a1,1748(a5) # 10006d4 <__malloc_top_pad>
 2000dc0:	00048513          	mv	a0,s1
 2000dc4:	c95ff0ef          	jal	2000a58 <_malloc_trim_r>
 2000dc8:	eb1ff06f          	j	2000c78 <_free_r+0xdc>
 2000dcc:	00d787b3          	add	a5,a5,a3
 2000dd0:	ed1ff06f          	j	2000ca0 <_free_r+0x104>
 2000dd4:	01400613          	li	a2,20
 2000dd8:	02d67863          	bgeu	a2,a3,2000e08 <_free_r+0x26c>
 2000ddc:	05400613          	li	a2,84
 2000de0:	06d66863          	bltu	a2,a3,2000e50 <_free_r+0x2b4>
 2000de4:	00c7d693          	srli	a3,a5,0xc
 2000de8:	06f68513          	addi	a0,a3,111
 2000dec:	00351513          	slli	a0,a0,0x3
 2000df0:	06e68613          	addi	a2,a3,110
 2000df4:	f09ff06f          	j	2000cfc <_free_r+0x160>
 2000df8:	0017e693          	ori	a3,a5,1
 2000dfc:	00d72223          	sw	a3,4(a4)
 2000e00:	00f62023          	sw	a5,0(a2)
 2000e04:	e75ff06f          	j	2000c78 <_free_r+0xdc>
 2000e08:	05c68513          	addi	a0,a3,92
 2000e0c:	00351513          	slli	a0,a0,0x3
 2000e10:	05b68613          	addi	a2,a3,91
 2000e14:	ee9ff06f          	j	2000cfc <_free_r+0x160>
 2000e18:	00e5aa23          	sw	a4,20(a1)
 2000e1c:	00e5a823          	sw	a4,16(a1)
 2000e20:	00a72623          	sw	a0,12(a4)
 2000e24:	00a72423          	sw	a0,8(a4)
 2000e28:	01172223          	sw	a7,4(a4)
 2000e2c:	00f82023          	sw	a5,0(a6)
 2000e30:	e49ff06f          	j	2000c78 <_free_r+0xdc>
 2000e34:	0045a803          	lw	a6,4(a1)
 2000e38:	40265613          	srai	a2,a2,0x2
 2000e3c:	00100793          	li	a5,1
 2000e40:	00c797b3          	sll	a5,a5,a2
 2000e44:	0107e7b3          	or	a5,a5,a6
 2000e48:	00f5a223          	sw	a5,4(a1)
 2000e4c:	eddff06f          	j	2000d28 <_free_r+0x18c>
 2000e50:	15400613          	li	a2,340
 2000e54:	00d66c63          	bltu	a2,a3,2000e6c <_free_r+0x2d0>
 2000e58:	00f7d693          	srli	a3,a5,0xf
 2000e5c:	07868513          	addi	a0,a3,120
 2000e60:	00351513          	slli	a0,a0,0x3
 2000e64:	07768613          	addi	a2,a3,119
 2000e68:	e95ff06f          	j	2000cfc <_free_r+0x160>
 2000e6c:	55400613          	li	a2,1364
 2000e70:	00d66c63          	bltu	a2,a3,2000e88 <_free_r+0x2ec>
 2000e74:	0127d693          	srli	a3,a5,0x12
 2000e78:	07d68513          	addi	a0,a3,125
 2000e7c:	00351513          	slli	a0,a0,0x3
 2000e80:	07c68613          	addi	a2,a3,124
 2000e84:	e79ff06f          	j	2000cfc <_free_r+0x160>
 2000e88:	3f800513          	li	a0,1016
 2000e8c:	07e00613          	li	a2,126
 2000e90:	e6dff06f          	j	2000cfc <_free_r+0x160>

02000e94 <_malloc_r>:
 2000e94:	fd010113          	addi	sp,sp,-48
 2000e98:	01312e23          	sw	s3,28(sp)
 2000e9c:	02112623          	sw	ra,44(sp)
 2000ea0:	02812423          	sw	s0,40(sp)
 2000ea4:	02912223          	sw	s1,36(sp)
 2000ea8:	03212023          	sw	s2,32(sp)
 2000eac:	00b58793          	addi	a5,a1,11
 2000eb0:	01600713          	li	a4,22
 2000eb4:	00050993          	mv	s3,a0
 2000eb8:	08f76063          	bltu	a4,a5,2000f38 <_malloc_r+0xa4>
 2000ebc:	01000493          	li	s1,16
 2000ec0:	20b4e263          	bltu	s1,a1,20010c4 <_malloc_r+0x230>
 2000ec4:	7e8000ef          	jal	20016ac <__malloc_lock>
 2000ec8:	01800793          	li	a5,24
 2000ecc:	00200593          	li	a1,2
 2000ed0:	01000937          	lui	s2,0x1000
 2000ed4:	14c90913          	addi	s2,s2,332 # 100014c <__malloc_av_>
 2000ed8:	00f907b3          	add	a5,s2,a5
 2000edc:	0047a403          	lw	s0,4(a5)
 2000ee0:	ff878713          	addi	a4,a5,-8
 2000ee4:	44e40c63          	beq	s0,a4,200133c <_malloc_r+0x4a8>
 2000ee8:	00442783          	lw	a5,4(s0)
 2000eec:	00c42683          	lw	a3,12(s0)
 2000ef0:	00842603          	lw	a2,8(s0)
 2000ef4:	ffc7f793          	andi	a5,a5,-4
 2000ef8:	00f407b3          	add	a5,s0,a5
 2000efc:	0047a703          	lw	a4,4(a5)
 2000f00:	00d62623          	sw	a3,12(a2)
 2000f04:	00c6a423          	sw	a2,8(a3)
 2000f08:	00176713          	ori	a4,a4,1
 2000f0c:	00098513          	mv	a0,s3
 2000f10:	00e7a223          	sw	a4,4(a5)
 2000f14:	79c000ef          	jal	20016b0 <__malloc_unlock>
 2000f18:	02c12083          	lw	ra,44(sp)
 2000f1c:	00840513          	addi	a0,s0,8
 2000f20:	02812403          	lw	s0,40(sp)
 2000f24:	02412483          	lw	s1,36(sp)
 2000f28:	02012903          	lw	s2,32(sp)
 2000f2c:	01c12983          	lw	s3,28(sp)
 2000f30:	03010113          	addi	sp,sp,48
 2000f34:	00008067          	ret
 2000f38:	ff87f493          	andi	s1,a5,-8
 2000f3c:	1807c463          	bltz	a5,20010c4 <_malloc_r+0x230>
 2000f40:	18b4e263          	bltu	s1,a1,20010c4 <_malloc_r+0x230>
 2000f44:	768000ef          	jal	20016ac <__malloc_lock>
 2000f48:	1f700793          	li	a5,503
 2000f4c:	5097f263          	bgeu	a5,s1,2001450 <_malloc_r+0x5bc>
 2000f50:	0094d793          	srli	a5,s1,0x9
 2000f54:	18078c63          	beqz	a5,20010ec <_malloc_r+0x258>
 2000f58:	00400713          	li	a4,4
 2000f5c:	44f76863          	bltu	a4,a5,20013ac <_malloc_r+0x518>
 2000f60:	0064d793          	srli	a5,s1,0x6
 2000f64:	03978593          	addi	a1,a5,57
 2000f68:	03878813          	addi	a6,a5,56
 2000f6c:	00359613          	slli	a2,a1,0x3
 2000f70:	01000937          	lui	s2,0x1000
 2000f74:	14c90913          	addi	s2,s2,332 # 100014c <__malloc_av_>
 2000f78:	00c90633          	add	a2,s2,a2
 2000f7c:	00462403          	lw	s0,4(a2)
 2000f80:	ff860613          	addi	a2,a2,-8
 2000f84:	02860863          	beq	a2,s0,2000fb4 <_malloc_r+0x120>
 2000f88:	00f00513          	li	a0,15
 2000f8c:	0140006f          	j	2000fa0 <_malloc_r+0x10c>
 2000f90:	00c42683          	lw	a3,12(s0)
 2000f94:	36075263          	bgez	a4,20012f8 <_malloc_r+0x464>
 2000f98:	00d60e63          	beq	a2,a3,2000fb4 <_malloc_r+0x120>
 2000f9c:	00068413          	mv	s0,a3
 2000fa0:	00442783          	lw	a5,4(s0)
 2000fa4:	ffc7f793          	andi	a5,a5,-4
 2000fa8:	40978733          	sub	a4,a5,s1
 2000fac:	fee552e3          	bge	a0,a4,2000f90 <_malloc_r+0xfc>
 2000fb0:	00080593          	mv	a1,a6
 2000fb4:	01092403          	lw	s0,16(s2)
 2000fb8:	00890893          	addi	a7,s2,8
 2000fbc:	2b140e63          	beq	s0,a7,2001278 <_malloc_r+0x3e4>
 2000fc0:	00442783          	lw	a5,4(s0)
 2000fc4:	00f00693          	li	a3,15
 2000fc8:	ffc7f793          	andi	a5,a5,-4
 2000fcc:	40978733          	sub	a4,a5,s1
 2000fd0:	48e6c663          	blt	a3,a4,200145c <_malloc_r+0x5c8>
 2000fd4:	01192a23          	sw	a7,20(s2)
 2000fd8:	01192823          	sw	a7,16(s2)
 2000fdc:	44075a63          	bgez	a4,2001430 <_malloc_r+0x59c>
 2000fe0:	1ff00713          	li	a4,511
 2000fe4:	00492503          	lw	a0,4(s2)
 2000fe8:	36f76263          	bltu	a4,a5,200134c <_malloc_r+0x4b8>
 2000fec:	ff87f713          	andi	a4,a5,-8
 2000ff0:	00870713          	addi	a4,a4,8
 2000ff4:	00e90733          	add	a4,s2,a4
 2000ff8:	00072683          	lw	a3,0(a4)
 2000ffc:	0057d613          	srli	a2,a5,0x5
 2001000:	00100793          	li	a5,1
 2001004:	00c797b3          	sll	a5,a5,a2
 2001008:	00f56533          	or	a0,a0,a5
 200100c:	ff870793          	addi	a5,a4,-8
 2001010:	00d42423          	sw	a3,8(s0)
 2001014:	00f42623          	sw	a5,12(s0)
 2001018:	00a92223          	sw	a0,4(s2)
 200101c:	00872023          	sw	s0,0(a4)
 2001020:	0086a623          	sw	s0,12(a3)
 2001024:	4025d793          	srai	a5,a1,0x2
 2001028:	00100613          	li	a2,1
 200102c:	00f61633          	sll	a2,a2,a5
 2001030:	0cc56663          	bltu	a0,a2,20010fc <_malloc_r+0x268>
 2001034:	00a677b3          	and	a5,a2,a0
 2001038:	02079463          	bnez	a5,2001060 <_malloc_r+0x1cc>
 200103c:	00161613          	slli	a2,a2,0x1
 2001040:	ffc5f593          	andi	a1,a1,-4
 2001044:	00a677b3          	and	a5,a2,a0
 2001048:	00458593          	addi	a1,a1,4
 200104c:	00079a63          	bnez	a5,2001060 <_malloc_r+0x1cc>
 2001050:	00161613          	slli	a2,a2,0x1
 2001054:	00a677b3          	and	a5,a2,a0
 2001058:	00458593          	addi	a1,a1,4
 200105c:	fe078ae3          	beqz	a5,2001050 <_malloc_r+0x1bc>
 2001060:	00f00813          	li	a6,15
 2001064:	00359313          	slli	t1,a1,0x3
 2001068:	00690333          	add	t1,s2,t1
 200106c:	00030513          	mv	a0,t1
 2001070:	00c52783          	lw	a5,12(a0)
 2001074:	00058e13          	mv	t3,a1
 2001078:	34f50c63          	beq	a0,a5,20013d0 <_malloc_r+0x53c>
 200107c:	0047a703          	lw	a4,4(a5)
 2001080:	00078413          	mv	s0,a5
 2001084:	00c7a783          	lw	a5,12(a5)
 2001088:	ffc77713          	andi	a4,a4,-4
 200108c:	409706b3          	sub	a3,a4,s1
 2001090:	34d84c63          	blt	a6,a3,20013e8 <_malloc_r+0x554>
 2001094:	fe06c2e3          	bltz	a3,2001078 <_malloc_r+0x1e4>
 2001098:	00e40733          	add	a4,s0,a4
 200109c:	00472683          	lw	a3,4(a4)
 20010a0:	00842603          	lw	a2,8(s0)
 20010a4:	00098513          	mv	a0,s3
 20010a8:	0016e693          	ori	a3,a3,1
 20010ac:	00d72223          	sw	a3,4(a4)
 20010b0:	00f62623          	sw	a5,12(a2)
 20010b4:	00c7a423          	sw	a2,8(a5)
 20010b8:	5f8000ef          	jal	20016b0 <__malloc_unlock>
 20010bc:	00840513          	addi	a0,s0,8
 20010c0:	0100006f          	j	20010d0 <_malloc_r+0x23c>
 20010c4:	00c00793          	li	a5,12
 20010c8:	00f9a023          	sw	a5,0(s3)
 20010cc:	00000513          	li	a0,0
 20010d0:	02c12083          	lw	ra,44(sp)
 20010d4:	02812403          	lw	s0,40(sp)
 20010d8:	02412483          	lw	s1,36(sp)
 20010dc:	02012903          	lw	s2,32(sp)
 20010e0:	01c12983          	lw	s3,28(sp)
 20010e4:	03010113          	addi	sp,sp,48
 20010e8:	00008067          	ret
 20010ec:	20000613          	li	a2,512
 20010f0:	04000593          	li	a1,64
 20010f4:	03f00813          	li	a6,63
 20010f8:	e79ff06f          	j	2000f70 <_malloc_r+0xdc>
 20010fc:	00892403          	lw	s0,8(s2)
 2001100:	01612823          	sw	s6,16(sp)
 2001104:	00442783          	lw	a5,4(s0)
 2001108:	ffc7fb13          	andi	s6,a5,-4
 200110c:	009b6863          	bltu	s6,s1,200111c <_malloc_r+0x288>
 2001110:	409b0733          	sub	a4,s6,s1
 2001114:	00f00793          	li	a5,15
 2001118:	18e7ce63          	blt	a5,a4,20012b4 <_malloc_r+0x420>
 200111c:	010007b7          	lui	a5,0x1000
 2001120:	01912223          	sw	s9,4(sp)
 2001124:	01000cb7          	lui	s9,0x1000
 2001128:	01412c23          	sw	s4,24(sp)
 200112c:	55cca703          	lw	a4,1372(s9) # 100055c <__malloc_sbrk_base>
 2001130:	6d47aa03          	lw	s4,1748(a5) # 10006d4 <__malloc_top_pad>
 2001134:	01512a23          	sw	s5,20(sp)
 2001138:	01712623          	sw	s7,12(sp)
 200113c:	fff00793          	li	a5,-1
 2001140:	01448a33          	add	s4,s1,s4
 2001144:	01640ab3          	add	s5,s0,s6
 2001148:	3ef70063          	beq	a4,a5,2001528 <_malloc_r+0x694>
 200114c:	000017b7          	lui	a5,0x1
 2001150:	00f78793          	addi	a5,a5,15 # 100f <_impure_data-0xffeff1>
 2001154:	00fa0a33          	add	s4,s4,a5
 2001158:	fffff7b7          	lui	a5,0xfffff
 200115c:	00fa7a33          	and	s4,s4,a5
 2001160:	000a0593          	mv	a1,s4
 2001164:	00098513          	mv	a0,s3
 2001168:	1a5000ef          	jal	2001b0c <_sbrk_r>
 200116c:	fff00793          	li	a5,-1
 2001170:	00050b93          	mv	s7,a0
 2001174:	46f50e63          	beq	a0,a5,20015f0 <_malloc_r+0x75c>
 2001178:	01812423          	sw	s8,8(sp)
 200117c:	11556263          	bltu	a0,s5,2001280 <_malloc_r+0x3ec>
 2001180:	01000c37          	lui	s8,0x1000
 2001184:	69cc0c13          	addi	s8,s8,1692 # 100069c <__malloc_current_mallinfo>
 2001188:	000c2703          	lw	a4,0(s8)
 200118c:	00ea0733          	add	a4,s4,a4
 2001190:	00ec2023          	sw	a4,0(s8)
 2001194:	46aa8463          	beq	s5,a0,20015fc <_malloc_r+0x768>
 2001198:	55cca683          	lw	a3,1372(s9)
 200119c:	fff00793          	li	a5,-1
 20011a0:	46f68c63          	beq	a3,a5,2001618 <_malloc_r+0x784>
 20011a4:	415b87b3          	sub	a5,s7,s5
 20011a8:	00e787b3          	add	a5,a5,a4
 20011ac:	00fc2023          	sw	a5,0(s8)
 20011b0:	007bfc93          	andi	s9,s7,7
 20011b4:	380c8a63          	beqz	s9,2001548 <_malloc_r+0x6b4>
 20011b8:	419b8bb3          	sub	s7,s7,s9
 20011bc:	00001737          	lui	a4,0x1
 20011c0:	008b8b93          	addi	s7,s7,8
 20011c4:	00870713          	addi	a4,a4,8 # 1008 <_impure_data-0xffeff8>
 20011c8:	014b8a33          	add	s4,s7,s4
 20011cc:	41970733          	sub	a4,a4,s9
 20011d0:	41470733          	sub	a4,a4,s4
 20011d4:	01471713          	slli	a4,a4,0x14
 20011d8:	01475a93          	srli	s5,a4,0x14
 20011dc:	000a8593          	mv	a1,s5
 20011e0:	00098513          	mv	a0,s3
 20011e4:	129000ef          	jal	2001b0c <_sbrk_r>
 20011e8:	fff00793          	li	a5,-1
 20011ec:	46f50663          	beq	a0,a5,2001658 <_malloc_r+0x7c4>
 20011f0:	41750533          	sub	a0,a0,s7
 20011f4:	01550a33          	add	s4,a0,s5
 20011f8:	000c2703          	lw	a4,0(s8)
 20011fc:	01792423          	sw	s7,8(s2)
 2001200:	001a6793          	ori	a5,s4,1
 2001204:	00ea8733          	add	a4,s5,a4
 2001208:	00fba223          	sw	a5,4(s7)
 200120c:	00ec2023          	sw	a4,0(s8)
 2001210:	03240e63          	beq	s0,s2,200124c <_malloc_r+0x3b8>
 2001214:	00f00613          	li	a2,15
 2001218:	35667e63          	bgeu	a2,s6,2001574 <_malloc_r+0x6e0>
 200121c:	00442683          	lw	a3,4(s0)
 2001220:	ff4b0793          	addi	a5,s6,-12
 2001224:	ff87f793          	andi	a5,a5,-8
 2001228:	0016f693          	andi	a3,a3,1
 200122c:	00f6e6b3          	or	a3,a3,a5
 2001230:	00d42223          	sw	a3,4(s0)
 2001234:	00500593          	li	a1,5
 2001238:	00f406b3          	add	a3,s0,a5
 200123c:	00b6a223          	sw	a1,4(a3)
 2001240:	00b6a423          	sw	a1,8(a3)
 2001244:	2cf66663          	bltu	a2,a5,2001510 <_malloc_r+0x67c>
 2001248:	004ba783          	lw	a5,4(s7)
 200124c:	010006b7          	lui	a3,0x1000
 2001250:	6d06a603          	lw	a2,1744(a3) # 10006d0 <__malloc_max_sbrked_mem>
 2001254:	00e67463          	bgeu	a2,a4,200125c <_malloc_r+0x3c8>
 2001258:	6ce6a823          	sw	a4,1744(a3)
 200125c:	010006b7          	lui	a3,0x1000
 2001260:	6cc6a603          	lw	a2,1740(a3) # 10006cc <__malloc_max_total_mem>
 2001264:	00e67463          	bgeu	a2,a4,200126c <_malloc_r+0x3d8>
 2001268:	6ce6a623          	sw	a4,1740(a3)
 200126c:	00812c03          	lw	s8,8(sp)
 2001270:	000b8413          	mv	s0,s7
 2001274:	01c0006f          	j	2001290 <_malloc_r+0x3fc>
 2001278:	00492503          	lw	a0,4(s2)
 200127c:	da9ff06f          	j	2001024 <_malloc_r+0x190>
 2001280:	35240c63          	beq	s0,s2,20015d8 <_malloc_r+0x744>
 2001284:	00892403          	lw	s0,8(s2)
 2001288:	00812c03          	lw	s8,8(sp)
 200128c:	00442783          	lw	a5,4(s0)
 2001290:	ffc7f793          	andi	a5,a5,-4
 2001294:	40978733          	sub	a4,a5,s1
 2001298:	2e97e463          	bltu	a5,s1,2001580 <_malloc_r+0x6ec>
 200129c:	00f00793          	li	a5,15
 20012a0:	2ee7d063          	bge	a5,a4,2001580 <_malloc_r+0x6ec>
 20012a4:	01812a03          	lw	s4,24(sp)
 20012a8:	01412a83          	lw	s5,20(sp)
 20012ac:	00c12b83          	lw	s7,12(sp)
 20012b0:	00412c83          	lw	s9,4(sp)
 20012b4:	0014e793          	ori	a5,s1,1
 20012b8:	00f42223          	sw	a5,4(s0)
 20012bc:	009404b3          	add	s1,s0,s1
 20012c0:	00992423          	sw	s1,8(s2)
 20012c4:	00176713          	ori	a4,a4,1
 20012c8:	00098513          	mv	a0,s3
 20012cc:	00e4a223          	sw	a4,4(s1)
 20012d0:	3e0000ef          	jal	20016b0 <__malloc_unlock>
 20012d4:	02c12083          	lw	ra,44(sp)
 20012d8:	00840513          	addi	a0,s0,8
 20012dc:	02812403          	lw	s0,40(sp)
 20012e0:	01012b03          	lw	s6,16(sp)
 20012e4:	02412483          	lw	s1,36(sp)
 20012e8:	02012903          	lw	s2,32(sp)
 20012ec:	01c12983          	lw	s3,28(sp)
 20012f0:	03010113          	addi	sp,sp,48
 20012f4:	00008067          	ret
 20012f8:	00842603          	lw	a2,8(s0)
 20012fc:	00f407b3          	add	a5,s0,a5
 2001300:	0047a703          	lw	a4,4(a5) # fffff004 <_data_lma+0xfdffd43a>
 2001304:	00d62623          	sw	a3,12(a2)
 2001308:	00c6a423          	sw	a2,8(a3)
 200130c:	00176713          	ori	a4,a4,1
 2001310:	00098513          	mv	a0,s3
 2001314:	00e7a223          	sw	a4,4(a5)
 2001318:	398000ef          	jal	20016b0 <__malloc_unlock>
 200131c:	02c12083          	lw	ra,44(sp)
 2001320:	00840513          	addi	a0,s0,8
 2001324:	02812403          	lw	s0,40(sp)
 2001328:	02412483          	lw	s1,36(sp)
 200132c:	02012903          	lw	s2,32(sp)
 2001330:	01c12983          	lw	s3,28(sp)
 2001334:	03010113          	addi	sp,sp,48
 2001338:	00008067          	ret
 200133c:	00c7a403          	lw	s0,12(a5)
 2001340:	00258593          	addi	a1,a1,2
 2001344:	c68788e3          	beq	a5,s0,2000fb4 <_malloc_r+0x120>
 2001348:	ba1ff06f          	j	2000ee8 <_malloc_r+0x54>
 200134c:	0097d713          	srli	a4,a5,0x9
 2001350:	00400693          	li	a3,4
 2001354:	14e6f263          	bgeu	a3,a4,2001498 <_malloc_r+0x604>
 2001358:	01400693          	li	a3,20
 200135c:	24e6e263          	bltu	a3,a4,20015a0 <_malloc_r+0x70c>
 2001360:	05c70613          	addi	a2,a4,92
 2001364:	00361613          	slli	a2,a2,0x3
 2001368:	05b70693          	addi	a3,a4,91
 200136c:	00c90633          	add	a2,s2,a2
 2001370:	00062703          	lw	a4,0(a2)
 2001374:	ff860613          	addi	a2,a2,-8
 2001378:	00e61863          	bne	a2,a4,2001388 <_malloc_r+0x4f4>
 200137c:	1b40006f          	j	2001530 <_malloc_r+0x69c>
 2001380:	00872703          	lw	a4,8(a4)
 2001384:	00e60863          	beq	a2,a4,2001394 <_malloc_r+0x500>
 2001388:	00472683          	lw	a3,4(a4)
 200138c:	ffc6f693          	andi	a3,a3,-4
 2001390:	fed7e8e3          	bltu	a5,a3,2001380 <_malloc_r+0x4ec>
 2001394:	00c72603          	lw	a2,12(a4)
 2001398:	00c42623          	sw	a2,12(s0)
 200139c:	00e42423          	sw	a4,8(s0)
 20013a0:	00862423          	sw	s0,8(a2)
 20013a4:	00872623          	sw	s0,12(a4)
 20013a8:	c7dff06f          	j	2001024 <_malloc_r+0x190>
 20013ac:	01400713          	li	a4,20
 20013b0:	0ef77e63          	bgeu	a4,a5,20014ac <_malloc_r+0x618>
 20013b4:	05400713          	li	a4,84
 20013b8:	20f76263          	bltu	a4,a5,20015bc <_malloc_r+0x728>
 20013bc:	00c4d793          	srli	a5,s1,0xc
 20013c0:	06f78593          	addi	a1,a5,111
 20013c4:	06e78813          	addi	a6,a5,110
 20013c8:	00359613          	slli	a2,a1,0x3
 20013cc:	ba5ff06f          	j	2000f70 <_malloc_r+0xdc>
 20013d0:	001e0e13          	addi	t3,t3,1
 20013d4:	003e7793          	andi	a5,t3,3
 20013d8:	00850513          	addi	a0,a0,8
 20013dc:	0e078663          	beqz	a5,20014c8 <_malloc_r+0x634>
 20013e0:	00c52783          	lw	a5,12(a0)
 20013e4:	c95ff06f          	j	2001078 <_malloc_r+0x1e4>
 20013e8:	00842603          	lw	a2,8(s0)
 20013ec:	0014e593          	ori	a1,s1,1
 20013f0:	00b42223          	sw	a1,4(s0)
 20013f4:	00f62623          	sw	a5,12(a2)
 20013f8:	00c7a423          	sw	a2,8(a5)
 20013fc:	009404b3          	add	s1,s0,s1
 2001400:	00992a23          	sw	s1,20(s2)
 2001404:	00992823          	sw	s1,16(s2)
 2001408:	0016e793          	ori	a5,a3,1
 200140c:	00e40733          	add	a4,s0,a4
 2001410:	0114a623          	sw	a7,12(s1)
 2001414:	0114a423          	sw	a7,8(s1)
 2001418:	00f4a223          	sw	a5,4(s1)
 200141c:	00098513          	mv	a0,s3
 2001420:	00d72023          	sw	a3,0(a4)
 2001424:	28c000ef          	jal	20016b0 <__malloc_unlock>
 2001428:	00840513          	addi	a0,s0,8
 200142c:	ca5ff06f          	j	20010d0 <_malloc_r+0x23c>
 2001430:	00f407b3          	add	a5,s0,a5
 2001434:	0047a703          	lw	a4,4(a5)
 2001438:	00098513          	mv	a0,s3
 200143c:	00176713          	ori	a4,a4,1
 2001440:	00e7a223          	sw	a4,4(a5)
 2001444:	26c000ef          	jal	20016b0 <__malloc_unlock>
 2001448:	00840513          	addi	a0,s0,8
 200144c:	c85ff06f          	j	20010d0 <_malloc_r+0x23c>
 2001450:	0034d593          	srli	a1,s1,0x3
 2001454:	00848793          	addi	a5,s1,8
 2001458:	a79ff06f          	j	2000ed0 <_malloc_r+0x3c>
 200145c:	0014e693          	ori	a3,s1,1
 2001460:	00d42223          	sw	a3,4(s0)
 2001464:	009404b3          	add	s1,s0,s1
 2001468:	00992a23          	sw	s1,20(s2)
 200146c:	00992823          	sw	s1,16(s2)
 2001470:	00176693          	ori	a3,a4,1
 2001474:	00f407b3          	add	a5,s0,a5
 2001478:	0114a623          	sw	a7,12(s1)
 200147c:	0114a423          	sw	a7,8(s1)
 2001480:	00d4a223          	sw	a3,4(s1)
 2001484:	00098513          	mv	a0,s3
 2001488:	00e7a023          	sw	a4,0(a5)
 200148c:	224000ef          	jal	20016b0 <__malloc_unlock>
 2001490:	00840513          	addi	a0,s0,8
 2001494:	c3dff06f          	j	20010d0 <_malloc_r+0x23c>
 2001498:	0067d713          	srli	a4,a5,0x6
 200149c:	03970613          	addi	a2,a4,57
 20014a0:	00361613          	slli	a2,a2,0x3
 20014a4:	03870693          	addi	a3,a4,56
 20014a8:	ec5ff06f          	j	200136c <_malloc_r+0x4d8>
 20014ac:	05c78593          	addi	a1,a5,92
 20014b0:	05b78813          	addi	a6,a5,91
 20014b4:	00359613          	slli	a2,a1,0x3
 20014b8:	ab9ff06f          	j	2000f70 <_malloc_r+0xdc>
 20014bc:	00832783          	lw	a5,8(t1)
 20014c0:	fff58593          	addi	a1,a1,-1
 20014c4:	1e679063          	bne	a5,t1,20016a4 <_malloc_r+0x810>
 20014c8:	0035f793          	andi	a5,a1,3
 20014cc:	ff830313          	addi	t1,t1,-8
 20014d0:	fe0796e3          	bnez	a5,20014bc <_malloc_r+0x628>
 20014d4:	00492703          	lw	a4,4(s2)
 20014d8:	fff64793          	not	a5,a2
 20014dc:	00e7f7b3          	and	a5,a5,a4
 20014e0:	00f92223          	sw	a5,4(s2)
 20014e4:	00161613          	slli	a2,a2,0x1
 20014e8:	c0c7eae3          	bltu	a5,a2,20010fc <_malloc_r+0x268>
 20014ec:	c00608e3          	beqz	a2,20010fc <_malloc_r+0x268>
 20014f0:	00f67733          	and	a4,a2,a5
 20014f4:	00071a63          	bnez	a4,2001508 <_malloc_r+0x674>
 20014f8:	00161613          	slli	a2,a2,0x1
 20014fc:	00f67733          	and	a4,a2,a5
 2001500:	004e0e13          	addi	t3,t3,4
 2001504:	fe070ae3          	beqz	a4,20014f8 <_malloc_r+0x664>
 2001508:	000e0593          	mv	a1,t3
 200150c:	b59ff06f          	j	2001064 <_malloc_r+0x1d0>
 2001510:	00840593          	addi	a1,s0,8
 2001514:	00098513          	mv	a0,s3
 2001518:	e84ff0ef          	jal	2000b9c <_free_r>
 200151c:	000c2703          	lw	a4,0(s8)
 2001520:	00892b83          	lw	s7,8(s2)
 2001524:	d25ff06f          	j	2001248 <_malloc_r+0x3b4>
 2001528:	010a0a13          	addi	s4,s4,16
 200152c:	c35ff06f          	j	2001160 <_malloc_r+0x2cc>
 2001530:	4026d693          	srai	a3,a3,0x2
 2001534:	00100793          	li	a5,1
 2001538:	00d797b3          	sll	a5,a5,a3
 200153c:	00f56533          	or	a0,a0,a5
 2001540:	00a92223          	sw	a0,4(s2)
 2001544:	e55ff06f          	j	2001398 <_malloc_r+0x504>
 2001548:	014b8733          	add	a4,s7,s4
 200154c:	40e00733          	neg	a4,a4
 2001550:	01471713          	slli	a4,a4,0x14
 2001554:	01475a93          	srli	s5,a4,0x14
 2001558:	000a8593          	mv	a1,s5
 200155c:	00098513          	mv	a0,s3
 2001560:	5ac000ef          	jal	2001b0c <_sbrk_r>
 2001564:	fff00793          	li	a5,-1
 2001568:	c8f514e3          	bne	a0,a5,20011f0 <_malloc_r+0x35c>
 200156c:	00000a93          	li	s5,0
 2001570:	c89ff06f          	j	20011f8 <_malloc_r+0x364>
 2001574:	00812c03          	lw	s8,8(sp)
 2001578:	00100793          	li	a5,1
 200157c:	00fba223          	sw	a5,4(s7)
 2001580:	00098513          	mv	a0,s3
 2001584:	12c000ef          	jal	20016b0 <__malloc_unlock>
 2001588:	01812a03          	lw	s4,24(sp)
 200158c:	01412a83          	lw	s5,20(sp)
 2001590:	01012b03          	lw	s6,16(sp)
 2001594:	00c12b83          	lw	s7,12(sp)
 2001598:	00412c83          	lw	s9,4(sp)
 200159c:	b31ff06f          	j	20010cc <_malloc_r+0x238>
 20015a0:	05400693          	li	a3,84
 20015a4:	06e6ee63          	bltu	a3,a4,2001620 <_malloc_r+0x78c>
 20015a8:	00c7d713          	srli	a4,a5,0xc
 20015ac:	06f70613          	addi	a2,a4,111
 20015b0:	00361613          	slli	a2,a2,0x3
 20015b4:	06e70693          	addi	a3,a4,110
 20015b8:	db5ff06f          	j	200136c <_malloc_r+0x4d8>
 20015bc:	15400713          	li	a4,340
 20015c0:	06f76e63          	bltu	a4,a5,200163c <_malloc_r+0x7a8>
 20015c4:	00f4d793          	srli	a5,s1,0xf
 20015c8:	07878593          	addi	a1,a5,120
 20015cc:	07778813          	addi	a6,a5,119
 20015d0:	00359613          	slli	a2,a1,0x3
 20015d4:	99dff06f          	j	2000f70 <_malloc_r+0xdc>
 20015d8:	01000c37          	lui	s8,0x1000
 20015dc:	69cc0c13          	addi	s8,s8,1692 # 100069c <__malloc_current_mallinfo>
 20015e0:	000c2703          	lw	a4,0(s8)
 20015e4:	00ea0733          	add	a4,s4,a4
 20015e8:	00ec2023          	sw	a4,0(s8)
 20015ec:	badff06f          	j	2001198 <_malloc_r+0x304>
 20015f0:	00892403          	lw	s0,8(s2)
 20015f4:	00442783          	lw	a5,4(s0)
 20015f8:	c99ff06f          	j	2001290 <_malloc_r+0x3fc>
 20015fc:	01451793          	slli	a5,a0,0x14
 2001600:	b8079ce3          	bnez	a5,2001198 <_malloc_r+0x304>
 2001604:	00892b83          	lw	s7,8(s2)
 2001608:	014b07b3          	add	a5,s6,s4
 200160c:	0017e793          	ori	a5,a5,1
 2001610:	00fba223          	sw	a5,4(s7)
 2001614:	c39ff06f          	j	200124c <_malloc_r+0x3b8>
 2001618:	557cae23          	sw	s7,1372(s9)
 200161c:	b95ff06f          	j	20011b0 <_malloc_r+0x31c>
 2001620:	15400693          	li	a3,340
 2001624:	04e6e463          	bltu	a3,a4,200166c <_malloc_r+0x7d8>
 2001628:	00f7d713          	srli	a4,a5,0xf
 200162c:	07870613          	addi	a2,a4,120
 2001630:	00361613          	slli	a2,a2,0x3
 2001634:	07770693          	addi	a3,a4,119
 2001638:	d35ff06f          	j	200136c <_malloc_r+0x4d8>
 200163c:	55400713          	li	a4,1364
 2001640:	04f76463          	bltu	a4,a5,2001688 <_malloc_r+0x7f4>
 2001644:	0124d793          	srli	a5,s1,0x12
 2001648:	07d78593          	addi	a1,a5,125
 200164c:	07c78813          	addi	a6,a5,124
 2001650:	00359613          	slli	a2,a1,0x3
 2001654:	91dff06f          	j	2000f70 <_malloc_r+0xdc>
 2001658:	ff8c8c93          	addi	s9,s9,-8
 200165c:	019a0a33          	add	s4,s4,s9
 2001660:	417a0a33          	sub	s4,s4,s7
 2001664:	00000a93          	li	s5,0
 2001668:	b91ff06f          	j	20011f8 <_malloc_r+0x364>
 200166c:	55400693          	li	a3,1364
 2001670:	02e6e463          	bltu	a3,a4,2001698 <_malloc_r+0x804>
 2001674:	0127d713          	srli	a4,a5,0x12
 2001678:	07d70613          	addi	a2,a4,125
 200167c:	00361613          	slli	a2,a2,0x3
 2001680:	07c70693          	addi	a3,a4,124
 2001684:	ce9ff06f          	j	200136c <_malloc_r+0x4d8>
 2001688:	3f800613          	li	a2,1016
 200168c:	07f00593          	li	a1,127
 2001690:	07e00813          	li	a6,126
 2001694:	8ddff06f          	j	2000f70 <_malloc_r+0xdc>
 2001698:	3f800613          	li	a2,1016
 200169c:	07e00693          	li	a3,126
 20016a0:	ccdff06f          	j	200136c <_malloc_r+0x4d8>
 20016a4:	00492783          	lw	a5,4(s2)
 20016a8:	e3dff06f          	j	20014e4 <_malloc_r+0x650>

020016ac <__malloc_lock>:
 20016ac:	00008067          	ret

020016b0 <__malloc_unlock>:
 20016b0:	00008067          	ret

020016b4 <_fclose_r>:
 20016b4:	ff010113          	addi	sp,sp,-16
 20016b8:	00112623          	sw	ra,12(sp)
 20016bc:	01212023          	sw	s2,0(sp)
 20016c0:	02058863          	beqz	a1,20016f0 <_fclose_r+0x3c>
 20016c4:	00812423          	sw	s0,8(sp)
 20016c8:	00912223          	sw	s1,4(sp)
 20016cc:	00058413          	mv	s0,a1
 20016d0:	00050493          	mv	s1,a0
 20016d4:	00050663          	beqz	a0,20016e0 <_fclose_r+0x2c>
 20016d8:	03452783          	lw	a5,52(a0)
 20016dc:	0c078c63          	beqz	a5,20017b4 <_fclose_r+0x100>
 20016e0:	00c41783          	lh	a5,12(s0)
 20016e4:	02079263          	bnez	a5,2001708 <_fclose_r+0x54>
 20016e8:	00812403          	lw	s0,8(sp)
 20016ec:	00412483          	lw	s1,4(sp)
 20016f0:	00c12083          	lw	ra,12(sp)
 20016f4:	00000913          	li	s2,0
 20016f8:	00090513          	mv	a0,s2
 20016fc:	00012903          	lw	s2,0(sp)
 2001700:	01010113          	addi	sp,sp,16
 2001704:	00008067          	ret
 2001708:	00040593          	mv	a1,s0
 200170c:	00048513          	mv	a0,s1
 2001710:	0bc000ef          	jal	20017cc <__sflush_r>
 2001714:	02c42783          	lw	a5,44(s0)
 2001718:	00050913          	mv	s2,a0
 200171c:	00078a63          	beqz	a5,2001730 <_fclose_r+0x7c>
 2001720:	01c42583          	lw	a1,28(s0)
 2001724:	00048513          	mv	a0,s1
 2001728:	000780e7          	jalr	a5
 200172c:	06054463          	bltz	a0,2001794 <_fclose_r+0xe0>
 2001730:	00c45783          	lhu	a5,12(s0)
 2001734:	0807f793          	andi	a5,a5,128
 2001738:	06079663          	bnez	a5,20017a4 <_fclose_r+0xf0>
 200173c:	03042583          	lw	a1,48(s0)
 2001740:	00058c63          	beqz	a1,2001758 <_fclose_r+0xa4>
 2001744:	04040793          	addi	a5,s0,64
 2001748:	00f58663          	beq	a1,a5,2001754 <_fclose_r+0xa0>
 200174c:	00048513          	mv	a0,s1
 2001750:	c4cff0ef          	jal	2000b9c <_free_r>
 2001754:	02042823          	sw	zero,48(s0)
 2001758:	04442583          	lw	a1,68(s0)
 200175c:	00058863          	beqz	a1,200176c <_fclose_r+0xb8>
 2001760:	00048513          	mv	a0,s1
 2001764:	c38ff0ef          	jal	2000b9c <_free_r>
 2001768:	04042223          	sw	zero,68(s0)
 200176c:	d41fe0ef          	jal	20004ac <__sfp_lock_acquire>
 2001770:	00041623          	sh	zero,12(s0)
 2001774:	d3dfe0ef          	jal	20004b0 <__sfp_lock_release>
 2001778:	00c12083          	lw	ra,12(sp)
 200177c:	00812403          	lw	s0,8(sp)
 2001780:	00412483          	lw	s1,4(sp)
 2001784:	00090513          	mv	a0,s2
 2001788:	00012903          	lw	s2,0(sp)
 200178c:	01010113          	addi	sp,sp,16
 2001790:	00008067          	ret
 2001794:	00c45783          	lhu	a5,12(s0)
 2001798:	fff00913          	li	s2,-1
 200179c:	0807f793          	andi	a5,a5,128
 20017a0:	f8078ee3          	beqz	a5,200173c <_fclose_r+0x88>
 20017a4:	01042583          	lw	a1,16(s0)
 20017a8:	00048513          	mv	a0,s1
 20017ac:	bf0ff0ef          	jal	2000b9c <_free_r>
 20017b0:	f8dff06f          	j	200173c <_fclose_r+0x88>
 20017b4:	cd1fe0ef          	jal	2000484 <__sinit>
 20017b8:	f29ff06f          	j	20016e0 <_fclose_r+0x2c>

020017bc <fclose>:
 20017bc:	010007b7          	lui	a5,0x1000
 20017c0:	00050593          	mv	a1,a0
 20017c4:	5587a503          	lw	a0,1368(a5) # 1000558 <_impure_ptr>
 20017c8:	eedff06f          	j	20016b4 <_fclose_r>

020017cc <__sflush_r>:
 20017cc:	00c59703          	lh	a4,12(a1)
 20017d0:	fe010113          	addi	sp,sp,-32
 20017d4:	00812c23          	sw	s0,24(sp)
 20017d8:	01312623          	sw	s3,12(sp)
 20017dc:	00112e23          	sw	ra,28(sp)
 20017e0:	00877793          	andi	a5,a4,8
 20017e4:	00058413          	mv	s0,a1
 20017e8:	00050993          	mv	s3,a0
 20017ec:	12079063          	bnez	a5,200190c <__sflush_r+0x140>
 20017f0:	000017b7          	lui	a5,0x1
 20017f4:	80078793          	addi	a5,a5,-2048 # 800 <_impure_data-0xfff800>
 20017f8:	0045a683          	lw	a3,4(a1)
 20017fc:	00f767b3          	or	a5,a4,a5
 2001800:	00f59623          	sh	a5,12(a1)
 2001804:	18d05a63          	blez	a3,2001998 <__sflush_r+0x1cc>
 2001808:	02842803          	lw	a6,40(s0)
 200180c:	0e080463          	beqz	a6,20018f4 <__sflush_r+0x128>
 2001810:	00912a23          	sw	s1,20(sp)
 2001814:	01371693          	slli	a3,a4,0x13
 2001818:	0009a483          	lw	s1,0(s3)
 200181c:	0009a023          	sw	zero,0(s3)
 2001820:	1806c863          	bltz	a3,20019b0 <__sflush_r+0x1e4>
 2001824:	01c42583          	lw	a1,28(s0)
 2001828:	00000613          	li	a2,0
 200182c:	00100693          	li	a3,1
 2001830:	00098513          	mv	a0,s3
 2001834:	000800e7          	jalr	a6
 2001838:	fff00793          	li	a5,-1
 200183c:	00050613          	mv	a2,a0
 2001840:	1af50a63          	beq	a0,a5,20019f4 <__sflush_r+0x228>
 2001844:	00c41783          	lh	a5,12(s0)
 2001848:	02842803          	lw	a6,40(s0)
 200184c:	0047f793          	andi	a5,a5,4
 2001850:	00078e63          	beqz	a5,200186c <__sflush_r+0xa0>
 2001854:	00442703          	lw	a4,4(s0)
 2001858:	03042783          	lw	a5,48(s0)
 200185c:	40e60633          	sub	a2,a2,a4
 2001860:	00078663          	beqz	a5,200186c <__sflush_r+0xa0>
 2001864:	03c42783          	lw	a5,60(s0)
 2001868:	40f60633          	sub	a2,a2,a5
 200186c:	01c42583          	lw	a1,28(s0)
 2001870:	00000693          	li	a3,0
 2001874:	00098513          	mv	a0,s3
 2001878:	000800e7          	jalr	a6
 200187c:	fff00713          	li	a4,-1
 2001880:	00c41783          	lh	a5,12(s0)
 2001884:	12e51a63          	bne	a0,a4,20019b8 <__sflush_r+0x1ec>
 2001888:	0009a683          	lw	a3,0(s3)
 200188c:	01d00713          	li	a4,29
 2001890:	18d76063          	bltu	a4,a3,2001a10 <__sflush_r+0x244>
 2001894:	20400737          	lui	a4,0x20400
 2001898:	00170713          	addi	a4,a4,1 # 20400001 <_data_lma+0x1e3fe437>
 200189c:	00d75733          	srl	a4,a4,a3
 20018a0:	00177713          	andi	a4,a4,1
 20018a4:	16070663          	beqz	a4,2001a10 <__sflush_r+0x244>
 20018a8:	01042603          	lw	a2,16(s0)
 20018ac:	fffff737          	lui	a4,0xfffff
 20018b0:	7ff70713          	addi	a4,a4,2047 # fffff7ff <_data_lma+0xfdffdc35>
 20018b4:	00e7f733          	and	a4,a5,a4
 20018b8:	00e41623          	sh	a4,12(s0)
 20018bc:	00042223          	sw	zero,4(s0)
 20018c0:	00c42023          	sw	a2,0(s0)
 20018c4:	01379713          	slli	a4,a5,0x13
 20018c8:	00075463          	bgez	a4,20018d0 <__sflush_r+0x104>
 20018cc:	10068863          	beqz	a3,20019dc <__sflush_r+0x210>
 20018d0:	03042583          	lw	a1,48(s0)
 20018d4:	0099a023          	sw	s1,0(s3)
 20018d8:	10058a63          	beqz	a1,20019ec <__sflush_r+0x220>
 20018dc:	04040793          	addi	a5,s0,64
 20018e0:	00f58663          	beq	a1,a5,20018ec <__sflush_r+0x120>
 20018e4:	00098513          	mv	a0,s3
 20018e8:	ab4ff0ef          	jal	2000b9c <_free_r>
 20018ec:	01412483          	lw	s1,20(sp)
 20018f0:	02042823          	sw	zero,48(s0)
 20018f4:	01c12083          	lw	ra,28(sp)
 20018f8:	01812403          	lw	s0,24(sp)
 20018fc:	00c12983          	lw	s3,12(sp)
 2001900:	00000513          	li	a0,0
 2001904:	02010113          	addi	sp,sp,32
 2001908:	00008067          	ret
 200190c:	01212823          	sw	s2,16(sp)
 2001910:	0105a903          	lw	s2,16(a1)
 2001914:	08090a63          	beqz	s2,20019a8 <__sflush_r+0x1dc>
 2001918:	00912a23          	sw	s1,20(sp)
 200191c:	0005a483          	lw	s1,0(a1)
 2001920:	00377713          	andi	a4,a4,3
 2001924:	0125a023          	sw	s2,0(a1)
 2001928:	412484b3          	sub	s1,s1,s2
 200192c:	00000793          	li	a5,0
 2001930:	00071463          	bnez	a4,2001938 <__sflush_r+0x16c>
 2001934:	0145a783          	lw	a5,20(a1)
 2001938:	00f42423          	sw	a5,8(s0)
 200193c:	00904863          	bgtz	s1,200194c <__sflush_r+0x180>
 2001940:	0640006f          	j	20019a4 <__sflush_r+0x1d8>
 2001944:	00a90933          	add	s2,s2,a0
 2001948:	04905e63          	blez	s1,20019a4 <__sflush_r+0x1d8>
 200194c:	02442783          	lw	a5,36(s0)
 2001950:	01c42583          	lw	a1,28(s0)
 2001954:	00048693          	mv	a3,s1
 2001958:	00090613          	mv	a2,s2
 200195c:	00098513          	mv	a0,s3
 2001960:	000780e7          	jalr	a5
 2001964:	40a484b3          	sub	s1,s1,a0
 2001968:	fca04ee3          	bgtz	a0,2001944 <__sflush_r+0x178>
 200196c:	00c41783          	lh	a5,12(s0)
 2001970:	01012903          	lw	s2,16(sp)
 2001974:	0407e793          	ori	a5,a5,64
 2001978:	01c12083          	lw	ra,28(sp)
 200197c:	00f41623          	sh	a5,12(s0)
 2001980:	01812403          	lw	s0,24(sp)
 2001984:	01412483          	lw	s1,20(sp)
 2001988:	00c12983          	lw	s3,12(sp)
 200198c:	fff00513          	li	a0,-1
 2001990:	02010113          	addi	sp,sp,32
 2001994:	00008067          	ret
 2001998:	03c5a683          	lw	a3,60(a1)
 200199c:	e6d046e3          	bgtz	a3,2001808 <__sflush_r+0x3c>
 20019a0:	f55ff06f          	j	20018f4 <__sflush_r+0x128>
 20019a4:	01412483          	lw	s1,20(sp)
 20019a8:	01012903          	lw	s2,16(sp)
 20019ac:	f49ff06f          	j	20018f4 <__sflush_r+0x128>
 20019b0:	05042603          	lw	a2,80(s0)
 20019b4:	e99ff06f          	j	200184c <__sflush_r+0x80>
 20019b8:	01042683          	lw	a3,16(s0)
 20019bc:	fffff737          	lui	a4,0xfffff
 20019c0:	7ff70713          	addi	a4,a4,2047 # fffff7ff <_data_lma+0xfdffdc35>
 20019c4:	00e7f733          	and	a4,a5,a4
 20019c8:	00e41623          	sh	a4,12(s0)
 20019cc:	00042223          	sw	zero,4(s0)
 20019d0:	00d42023          	sw	a3,0(s0)
 20019d4:	01379713          	slli	a4,a5,0x13
 20019d8:	ee075ce3          	bgez	a4,20018d0 <__sflush_r+0x104>
 20019dc:	03042583          	lw	a1,48(s0)
 20019e0:	04a42823          	sw	a0,80(s0)
 20019e4:	0099a023          	sw	s1,0(s3)
 20019e8:	ee059ae3          	bnez	a1,20018dc <__sflush_r+0x110>
 20019ec:	01412483          	lw	s1,20(sp)
 20019f0:	f05ff06f          	j	20018f4 <__sflush_r+0x128>
 20019f4:	0009a783          	lw	a5,0(s3)
 20019f8:	e40786e3          	beqz	a5,2001844 <__sflush_r+0x78>
 20019fc:	01d00713          	li	a4,29
 2001a00:	00e78c63          	beq	a5,a4,2001a18 <__sflush_r+0x24c>
 2001a04:	01600713          	li	a4,22
 2001a08:	00e78863          	beq	a5,a4,2001a18 <__sflush_r+0x24c>
 2001a0c:	00c41783          	lh	a5,12(s0)
 2001a10:	0407e793          	ori	a5,a5,64
 2001a14:	f65ff06f          	j	2001978 <__sflush_r+0x1ac>
 2001a18:	0099a023          	sw	s1,0(s3)
 2001a1c:	01412483          	lw	s1,20(sp)
 2001a20:	ed5ff06f          	j	20018f4 <__sflush_r+0x128>

02001a24 <_fflush_r>:
 2001a24:	fe010113          	addi	sp,sp,-32
 2001a28:	00812c23          	sw	s0,24(sp)
 2001a2c:	00112e23          	sw	ra,28(sp)
 2001a30:	00050413          	mv	s0,a0
 2001a34:	00050663          	beqz	a0,2001a40 <_fflush_r+0x1c>
 2001a38:	03452783          	lw	a5,52(a0)
 2001a3c:	02078a63          	beqz	a5,2001a70 <_fflush_r+0x4c>
 2001a40:	00c59783          	lh	a5,12(a1)
 2001a44:	00079c63          	bnez	a5,2001a5c <_fflush_r+0x38>
 2001a48:	01c12083          	lw	ra,28(sp)
 2001a4c:	01812403          	lw	s0,24(sp)
 2001a50:	00000513          	li	a0,0
 2001a54:	02010113          	addi	sp,sp,32
 2001a58:	00008067          	ret
 2001a5c:	00040513          	mv	a0,s0
 2001a60:	01812403          	lw	s0,24(sp)
 2001a64:	01c12083          	lw	ra,28(sp)
 2001a68:	02010113          	addi	sp,sp,32
 2001a6c:	d61ff06f          	j	20017cc <__sflush_r>
 2001a70:	00b12623          	sw	a1,12(sp)
 2001a74:	a11fe0ef          	jal	2000484 <__sinit>
 2001a78:	00c12583          	lw	a1,12(sp)
 2001a7c:	fc5ff06f          	j	2001a40 <_fflush_r+0x1c>

02001a80 <fflush>:
 2001a80:	06050263          	beqz	a0,2001ae4 <fflush+0x64>
 2001a84:	010007b7          	lui	a5,0x1000
 2001a88:	00050593          	mv	a1,a0
 2001a8c:	5587a503          	lw	a0,1368(a5) # 1000558 <_impure_ptr>
 2001a90:	00050663          	beqz	a0,2001a9c <fflush+0x1c>
 2001a94:	03452783          	lw	a5,52(a0)
 2001a98:	00078c63          	beqz	a5,2001ab0 <fflush+0x30>
 2001a9c:	00c59783          	lh	a5,12(a1)
 2001aa0:	00079663          	bnez	a5,2001aac <fflush+0x2c>
 2001aa4:	00000513          	li	a0,0
 2001aa8:	00008067          	ret
 2001aac:	d21ff06f          	j	20017cc <__sflush_r>
 2001ab0:	fe010113          	addi	sp,sp,-32
 2001ab4:	00b12623          	sw	a1,12(sp)
 2001ab8:	00a12423          	sw	a0,8(sp)
 2001abc:	00112e23          	sw	ra,28(sp)
 2001ac0:	9c5fe0ef          	jal	2000484 <__sinit>
 2001ac4:	00c12583          	lw	a1,12(sp)
 2001ac8:	00812503          	lw	a0,8(sp)
 2001acc:	00c59783          	lh	a5,12(a1)
 2001ad0:	02079863          	bnez	a5,2001b00 <fflush+0x80>
 2001ad4:	01c12083          	lw	ra,28(sp)
 2001ad8:	00000513          	li	a0,0
 2001adc:	02010113          	addi	sp,sp,32
 2001ae0:	00008067          	ret
 2001ae4:	01000637          	lui	a2,0x1000
 2001ae8:	020025b7          	lui	a1,0x2002
 2001aec:	01000537          	lui	a0,0x1000
 2001af0:	14060613          	addi	a2,a2,320 # 1000140 <__sglue>
 2001af4:	a2458593          	addi	a1,a1,-1500 # 2001a24 <_fflush_r>
 2001af8:	00050513          	mv	a0,a0
 2001afc:	9e9fe06f          	j	20004e4 <_fwalk_sglue>
 2001b00:	01c12083          	lw	ra,28(sp)
 2001b04:	02010113          	addi	sp,sp,32
 2001b08:	cc5ff06f          	j	20017cc <__sflush_r>

02001b0c <_sbrk_r>:
 2001b0c:	ff010113          	addi	sp,sp,-16
 2001b10:	00812423          	sw	s0,8(sp)
 2001b14:	00912223          	sw	s1,4(sp)
 2001b18:	00050413          	mv	s0,a0
 2001b1c:	010004b7          	lui	s1,0x1000
 2001b20:	00058513          	mv	a0,a1
 2001b24:	00112623          	sw	ra,12(sp)
 2001b28:	6c04a423          	sw	zero,1736(s1) # 10006c8 <errno>
 2001b2c:	d3afe0ef          	jal	2000066 <_sbrk>
 2001b30:	fff00793          	li	a5,-1
 2001b34:	00f50c63          	beq	a0,a5,2001b4c <_sbrk_r+0x40>
 2001b38:	00c12083          	lw	ra,12(sp)
 2001b3c:	00812403          	lw	s0,8(sp)
 2001b40:	00412483          	lw	s1,4(sp)
 2001b44:	01010113          	addi	sp,sp,16
 2001b48:	00008067          	ret
 2001b4c:	6c84a783          	lw	a5,1736(s1)
 2001b50:	fe0784e3          	beqz	a5,2001b38 <_sbrk_r+0x2c>
 2001b54:	00c12083          	lw	ra,12(sp)
 2001b58:	00f42023          	sw	a5,0(s0)
 2001b5c:	00812403          	lw	s0,8(sp)
 2001b60:	00412483          	lw	s1,4(sp)
 2001b64:	01010113          	addi	sp,sp,16
 2001b68:	00008067          	ret

02001b6c <_close>:
 2001b6c:	010007b7          	lui	a5,0x1000
 2001b70:	05800713          	li	a4,88
 2001b74:	6ce7a423          	sw	a4,1736(a5) # 10006c8 <errno>
 2001b78:	fff00513          	li	a0,-1
 2001b7c:	00008067          	ret

02001b80 <_lseek>:
 2001b80:	010007b7          	lui	a5,0x1000
 2001b84:	05800713          	li	a4,88
 2001b88:	6ce7a423          	sw	a4,1736(a5) # 10006c8 <errno>
 2001b8c:	fff00513          	li	a0,-1
 2001b90:	00008067          	ret

02001b94 <_read>:
 2001b94:	010007b7          	lui	a5,0x1000
 2001b98:	05800713          	li	a4,88
 2001b9c:	6ce7a423          	sw	a4,1736(a5) # 10006c8 <errno>
 2001ba0:	fff00513          	li	a0,-1
 2001ba4:	00008067          	ret

02001ba8 <_write>:
 2001ba8:	010007b7          	lui	a5,0x1000
 2001bac:	05800713          	li	a4,88
 2001bb0:	6ce7a423          	sw	a4,1736(a5) # 10006c8 <errno>
 2001bb4:	fff00513          	li	a0,-1
 2001bb8:	00008067          	ret
 2001bbc:	0a0d                	.insn	2, 0x0a0d
 2001bbe:	4f4f425b          	.insn	4, 0x4f4f425b
 2001bc2:	5d54                	.insn	2, 0x5d54
 2001bc4:	6f20                	.insn	2, 0x6f20
 2001bc6:	000a0d6b          	.insn	4, 0x000a0d6b
